(lp1
(dp2
S'generalizations'
p3
(lp4
sS'fileName'
p5
S'00008#10.1038#nature04161'
p6
sS'entityType'
p7
VLocation
p8
sS'sentences'
p9
(lp10
sS'entity'
p11
VPolar ocean
p12
sa(dp13
g3
(lp14
sg5
g6
sg7
VSpecies
p15
sg9
(lp16
sg11
Vhuman
p17
sa.