(lp1
(dp2
S'generalizations'
p3
(lp4
sS'fileName'
p5
S'00007#10.1038#nrmicro956'
p6
sS'entityType'
p7
VLocation
p8
sS'sentences'
p9
(lp10
sS'entity'
p11
VEarth's
p12
sa(dp13
g3
(lp14
sg5
g6
sg7
VLocation
p15
sg9
(lp16
sg11
VEarth's
p17
sa.