(lp1
(dp2
S'generalizations'
p3
(lp4
sS'fileName'
p5
S'00082#10.1038#ismej.2014.60'
p6
sS'entityType'
p7
VCompound
p8
sS'sentences'
p9
(lp10
sS'entity'
p11
VNe
p12
sa(dp13
g3
(lp14
sg5
g6
sg7
VCompound
p15
sg9
(lp16
sg11
VNe
p17
sa.