(lp1
(dp2
S'generalizedLabel'
p3
VEstuary
p4
sS'term'
p5
VAlbufera
p6
sS'generalizedURI'
p7
Vhttp://wibitaxonomy.org/Estuary
p8
sS'generalizedFreq'
p9
I1559
sS'subjectURI'
p10
Vhttp://wibitaxonomy.org/Albufera
p11
sS'inputType'
p12
VLocation
p13
sS'generalizedLemma'
p14
Vestuary
p15
sa(dp16
g3
VLagoons
p17
sg5
g6
sg7
Vhttp://dbpedia.org/resource/Category:Lagoons
p18
sg9
I597
sg10
Vhttp://dbpedia.org/resource/Albufera
p19
sg12
g13
sg14
Vlagoon
p20
sa(dp21
g3
VLagoon
p22
sg5
g6
sg7
Vhttp://wibitaxonomy.org/Lagoon
p23
sg9
I597
sg10
g11
sg12
g13
sg14
Vlagoon
p24
sa(dp25
g3
VBody of water
p26
sg5
g6
sg7
Vhttp://wibitaxonomy.org/Body_of_water
p27
sg9
I27
sg10
g11
sg12
g13
sg14
VBody of water
p28
sa(dp29
g3
VWetlands of Spain
p30
sg5
g6
sg7
Vhttp://dbpedia.org/resource/Category:Wetlands_of_Spain
p31
sg9
I0
sg10
g19
sg12
g13
sg14
VWetlands of spain
p32
sa(dp33
g3
VRamsar sites in Spain
p34
sg5
g6
sg7
Vhttp://dbpedia.org/resource/Category:Ramsar_sites_in_Spain
p35
sg9
I0
sg10
g19
sg12
g13
sg14
VRamsar sites in spain
p36
sa(dp37
g3
VProtected areas of the Valencian Community
p38
sg5
g6
sg7
Vhttp://dbpedia.org/resource/Category:Protected_areas_of_the_Valencian_Community
p39
sg9
I0
sg10
g19
sg12
g13
sg14
VProtected areas of the Valencian community
p40
sa(dp41
g3
VGeography of the Province of Valencia
p42
sg5
g6
sg7
Vhttp://dbpedia.org/resource/Category:Geography_of_the_Province_of_Valencia
p43
sg9
I0
sg10
g19
sg12
g13
sg14
VGeography of the Province of valencia
p44
sa(dp45
g3
VSpecial Protection Areas of Spain
p46
sg5
g6
sg7
Vhttp://dbpedia.org/resource/Category:Special_Protection_Areas_of_Spain
p47
sg9
I0
sg10
g19
sg12
g13
sg14
VSpecial Protection Areas of spain
p48
sa(dp49
g3
VLandforms of the Valencian Community
p50
sg5
g6
sg7
Vhttp://dbpedia.org/resource/Category:Landforms_of_the_Valencian_Community
p51
sg9
I0
sg10
g19
sg12
g13
sg14
VLandforms of the Valencian community
p52
sa.