(lp1
(dp2
S'generalizedLabel'
p3
VOrganic compounds
p4
sS'term'
p5
Vamino acids
p6
sS'generalizedURI'
p7
Vhttp://wibitaxonomy.org/Category%3AOrganic_compounds
p8
sS'generalizedFreq'
p9
I774
sS'subjectURI'
p10
Vhttp://wibitaxonomy.org/Category%3AAmino_acids
p11
sS'inputType'
p12
VCompound
p13
sS'generalizedLemma'
p14
VOrganic compound
p15
sa(dp16
g3
VAmines
p17
sg5
g6
sg7
Vhttp://dbpedia.org/resource/Category:Amines
p18
sg9
I370
sg10
Vhttp://dbpedia.org/resource/Category:Amino_acids
p19
sg12
g13
sg14
Vamine
p20
sa(dp21
g3
VOrganic acids
p22
sg5
g6
sg7
Vhttp://wibitaxonomy.org/Category%3AOrganic_acids
p23
sg9
I317
sg10
g11
sg12
g13
sg14
VOrganic acid
p24
sa(dp25
g3
VCarboxylic acids
p26
sg5
g6
sg7
Vhttp://dbpedia.org/resource/Category:Carboxylic_acids
p27
sg9
I185
sg10
g19
sg12
g13
sg14
VCarboxylic acid
p28
sa(dp29
g3
VCarboxylic acids
p30
sg5
g6
sg7
Vhttp://wibitaxonomy.org/Category%3ACarboxylic_acids
p31
sg9
I185
sg10
g11
sg12
g13
sg14
VCarboxylic acid
p32
sa(dp33
g3
VBiomolecules by chemical classification
p34
sg5
g6
sg7
Vhttp://dbpedia.org/resource/Category:Biomolecules_by_chemical_classification
p35
sg9
I0
sg10
g19
sg12
g13
sg14
VBiomolecules by chemical classification
p36
sa.