(lp1
(dp2
S'generalizedLabel'
p3
VAtom
p4
sS'term'
p5
Vammonium
p6
sS'generalizedURI'
p7
Vhttp://wibitaxonomy.org/Atom
p8
sS'generalizedFreq'
p9
I1894
sS'subjectURI'
p10
Vhttp://wibitaxonomy.org/Ammonium
p11
sS'inputType'
p12
VCompound
p13
sS'generalizedLemma'
p14
Vatom
p15
sa(dp16
g3
VCations
p17
sg5
g6
sg7
Vhttp://dbpedia.org/resource/Category:Cations
p18
sg9
I665
sg10
Vhttp://dbpedia.org/resource/Ammonium
p19
sg12
g13
sg14
Vcation
p20
sa(dp21
g3
Vchemical compound
p22
sg5
g6
sg7
Vhttp://dbpedia.org/ontology/ChemicalCompound
p23
sg9
I76
sg10
g19
sg12
g13
sg14
Vchemical compound
p24
sa(dp25
g3
VAmmonium compounds
p26
sg5
g6
sg7
Vhttp://dbpedia.org/resource/Category:Ammonium_compounds
p27
sg9
I14
sg10
g19
sg12
g13
sg14
VAmmonium compound
p28
sa(dp29
g3
Vchemical substance
p30
sg5
g6
sg7
Vhttp://dbpedia.org/ontology/ChemicalSubstance
p31
sg9
I6
sg10
g19
sg12
g13
sg14
Vchemical substance
p32
sa(dp33
g3
VPolyatomic ion
p34
sg5
g6
sg7
Vhttp://wibitaxonomy.org/Polyatomic_ion
p35
sg9
I0
sg10
g11
sg12
g13
sg14
VPolyatomic ion
p36
sa(dp37
g3
VChemical species
p38
sg5
g6
sg7
Vhttp://wibitaxonomy.org/Chemical_species
p39
sg9
I0
sg10
g11
sg12
g13
sg14
VChemical specie
p40
sa.