(lp1
(dp2
S'generalizedLabel'
p3
VBases
p4
sS'term'
p5
Vammonia
p6
sS'generalizedURI'
p7
Vhttp://dbpedia.org/resource/Category:Bases
p8
sS'generalizedFreq'
p9
I17893
sS'subjectURI'
p10
Vhttp://dbpedia.org/resource/Ammonia
p11
sS'inputType'
p12
VCompound
p13
sS'generalizedLemma'
p14
Vbase
p15
sa(dp16
g3
VMatter
p17
sg5
g6
sg7
Vhttp://wibitaxonomy.org/Matter
p18
sg9
I7091
sg10
Vhttp://wibitaxonomy.org/Ammonia
p19
sg12
g13
sg14
Vmatter
p20
sa(dp21
g3
VNitrogen metabolism
p22
sg5
g6
sg7
Vhttp://dbpedia.org/resource/Category:Nitrogen_metabolism
p23
sg9
I227
sg10
g11
sg12
g13
sg14
VNitrogen metabolism
p24
sa(dp25
g3
VToxicology
p26
sg5
g6
sg7
Vhttp://dbpedia.org/resource/Category:Toxicology
p27
sg9
I110
sg10
g11
sg12
g13
sg14
Vtoxicology
p28
sa(dp29
g3
Vchemical compound
p30
sg5
g6
sg7
Vhttp://dbpedia.org/ontology/ChemicalCompound
p31
sg9
I76
sg10
g11
sg12
g13
sg14
Vchemical compound
p32
sa(dp33
g3
VChemical compound
p34
sg5
g6
sg7
Vhttp://wibitaxonomy.org/Chemical_compound
p35
sg9
I76
sg10
g19
sg12
g13
sg14
VChemical compound
p36
sa(dp37
g3
VRefrigerants
p38
sg5
g6
sg7
Vhttp://dbpedia.org/resource/Category:Refrigerants
p39
sg9
I37
sg10
g11
sg12
g13
sg14
Vrefrigerant
p40
sa(dp41
g3
VIndustrial gases
p42
sg5
g6
sg7
Vhttp://dbpedia.org/resource/Category:Industrial_gases
p43
sg9
I10
sg10
g11
sg12
g13
sg14
VIndustrial gas
p44
sa(dp45
g3
Vchemical substance
p46
sg5
g6
sg7
Vhttp://dbpedia.org/ontology/ChemicalSubstance
p47
sg9
I6
sg10
g11
sg12
g13
sg14
Vchemical substance
p48
sa(dp49
g3
VChemical substance
p50
sg5
g6
sg7
Vhttp://wibitaxonomy.org/Chemical_substance
p51
sg9
I6
sg10
g19
sg12
g13
sg14
VChemical substance
p52
sa(dp53
g3
VHousehold chemicals
p54
sg5
g6
sg7
Vhttp://dbpedia.org/resource/Category:Household_chemicals
p55
sg9
I2
sg10
g11
sg12
g13
sg14
VHousehold chemical
p56
sa(dp57
g3
VInorganic amines
p58
sg5
g6
sg7
Vhttp://dbpedia.org/resource/Category:Inorganic_amines
p59
sg9
I0
sg10
g11
sg12
g13
sg14
VInorganic amine
p60
sa(dp61
g3
VNitrogen hydrides
p62
sg5
g6
sg7
Vhttp://dbpedia.org/resource/Category:Nitrogen_hydrides
p63
sg9
I0
sg10
g11
sg12
g13
sg14
VNitrogen hydride
p64
sa(dp65
g3
VInorganic solvents
p66
sg5
g6
sg7
Vhttp://dbpedia.org/resource/Category:Inorganic_solvents
p67
sg9
I0
sg10
g11
sg12
g13
sg14
VInorganic solvent
p68
sa(dp69
g3
VGaseous signaling molecules
p70
sg5
g6
sg7
Vhttp://dbpedia.org/resource/Category:Gaseous_signaling_molecules
p71
sg9
I0
sg10
g11
sg12
g13
sg14
VGaseous signaling molecule
p72
sa.