(lp1
(dp2
S'generalizedLabel'
p3
VCanadian Arctic Archipelago
p4
sS'term'
p5
VAmundsen Gulf
p6
sS'generalizedURI'
p7
Vhttp://dbpedia.org/resource/Category:Canadian_Arctic_Archipelago
p8
sS'generalizedFreq'
p9
I24
sS'subjectURI'
p10
Vhttp://dbpedia.org/resource/Amundsen_Gulf
p11
sS'inputType'
p12
VLocation
p13
sS'generalizedLemma'
p14
VCanadian Arctic archipelago
p15
sa(dp16
g3
VGulfs of the Arctic Ocean
p17
sg5
g6
sg7
Vhttp://dbpedia.org/resource/Category:Gulfs_of_the_Arctic_Ocean
p18
sg9
I0
sg10
g11
sg12
g13
sg14
VGulfs of the Arctic ocean
p19
sa(dp20
g3
VGulfs of the Northwest Territories
p21
sg5
g6
sg7
Vhttp://dbpedia.org/resource/Category:Gulfs_of_the_Northwest_Territories
p22
sg9
I0
sg10
g11
sg12
g13
sg14
VGulfs of the Northwest territory
p23
sa(dp24
g3
VHeadlands and bays
p25
sg5
g6
sg7
Vhttp://wibitaxonomy.org/Headlands_and_bays
p26
sg9
I0
sg10
Vhttp://wibitaxonomy.org/Amundsen_Gulf
p27
sg12
g13
sg14
VHeadlands and bay
p28
sa.