(lp1
(dp2
S'generalizedLabel'
p3
VIsland
p4
sS'term'
p5
VAntarctic Peninsula
p6
sS'generalizedURI'
p7
Vhttp://wibitaxonomy.org/Island
p8
sS'generalizedFreq'
p9
I6048
sS'subjectURI'
p10
Vhttp://wibitaxonomy.org/Antarctic_Peninsula
p11
sS'inputType'
p12
VLocation
p13
sS'generalizedLemma'
p14
Visland
p15
sa(dp16
g3
VAntarctica
p17
sg5
g6
sg7
Vhttp://wibitaxonomy.org/Category%3AAntarctica
p18
sg9
I3195
sg10
Vhttp://wibitaxonomy.org/Category%3AAntarctic_Peninsula
p19
sg12
g13
sg14
Vantarctica
p20
sa(dp21
g3
VTundra
p22
sg5
g6
sg7
Vhttp://dbpedia.org/resource/Category:Tundra
p23
sg9
I1275
sg10
Vhttp://dbpedia.org/resource/Antarctic_Peninsula
p24
sg12
g13
sg14
Vtundra
p25
sa(dp26
g3
VWest Antarctica
p27
sg5
g6
sg7
Vhttp://dbpedia.org/resource/Category:West_Antarctica
p28
sg9
I182
sg10
g24
sg12
g13
sg14
VWest antarctica
p29
sa(dp30
g3
VWest Antarctica
p31
sg5
g6
sg7
Vhttp://dbpedia.org/resource/Category:West_Antarctica
p32
sg9
I182
sg10
Vhttp://dbpedia.org/resource/Category:Antarctic_Peninsula
p33
sg12
g13
sg14
VWest antarctica
p34
sa(dp35
g3
VWest Antarctica
p36
sg5
g6
sg7
Vhttp://wibitaxonomy.org/Category%3AWest_Antarctica
p37
sg9
I182
sg10
g19
sg12
g13
sg14
VWest antarctica
p38
sa(dp39
g3
VEcoregions of the Antarctic
p40
sg5
g6
sg7
Vhttp://dbpedia.org/resource/Category:Ecoregions_of_the_Antarctic
p41
sg9
I0
sg10
g24
sg12
g13
sg14
VEcoregions of the antarctic
p42
sa(dp43
g3
VGeography of the Antarctic Peninsula
p44
sg5
g6
sg7
Vhttp://dbpedia.org/resource/Category:Geography_of_the_Antarctic_Peninsula
p45
sg9
I0
sg10
g24
sg12
g13
sg14
VGeography of the Antarctic peninsula
p46
sa(dp47
g3
VPeninsulas of Antarctica
p48
sg5
g6
sg7
Vhttp://dbpedia.org/resource/Category:Peninsulas_of_Antarctica
p49
sg9
I0
sg10
g24
sg12
g13
sg14
VPeninsulas of antarctica
p50
sa(dp51
g3
VArgentine Antarctica
p52
sg5
g6
sg7
Vhttp://dbpedia.org/resource/Category:Argentine_Antarctica
p53
sg9
I0
sg10
g24
sg12
g13
sg14
VArgentine antarctica
p54
sa(dp55
g3
VBritish Antarctic Territory
p56
sg5
g6
sg7
Vhttp://dbpedia.org/resource/Category:British_Antarctic_Territory
p57
sg9
I0
sg10
g24
sg12
g13
sg14
VBritish Antarctic territory
p58
sa(dp59
g3
VChilean Antarctic Territory
p60
sg5
g6
sg7
Vhttp://dbpedia.org/resource/Category:Chilean_Antarctic_Territory
p61
sg9
I0
sg10
g24
sg12
g13
sg14
VChilean Antarctic territory
p62
sa(dp63
g3
VMainland%5C%2C Shetland
p64
sg5
g6
sg7
Vhttp://wibitaxonomy.org/Mainland%5C%2C_Shetland
p65
sg9
I0
sg10
g11
sg12
g13
sg14
VMainland%5C%2C shetland
p66
sa(dp67
g3
VGeography of Antarctica
p68
sg5
g6
sg7
Vhttp://wibitaxonomy.org/Category%3AGeography_of_Antarctica
p69
sg9
I0
sg10
g19
sg12
g13
sg14
VGeography of antarctica
p70
sa.