(lp1
(dp2
S'generalizedLabel'
p3
VArea
p4
sS'term'
p5
VAntarctic
p6
sS'generalizedURI'
p7
Vhttp://wibitaxonomy.org/Area
p8
sS'generalizedFreq'
p9
I23465
sS'subjectURI'
p10
Vhttp://wibitaxonomy.org/Antarctic
p11
sS'inputType'
p12
VLocation
p13
sS'generalizedLemma'
p14
Varea
p15
sa(dp16
g3
VQuantity
p17
sg5
g6
sg7
Vhttp://wibitaxonomy.org/Quantity
p18
sg9
I2054
sg10
g11
sg12
g13
sg14
Vquantity
p19
sa(dp20
g3
VPolar region
p21
sg5
g6
sg7
Vhttp://wibitaxonomy.org/Polar_region
p22
sg9
I280
sg10
g11
sg12
g13
sg14
VPolar region
p23
sa(dp24
g3
VAntarctic region
p25
sg5
g6
sg7
Vhttp://dbpedia.org/resource/Category:Antarctic_region
p26
sg9
I37
sg10
Vhttp://dbpedia.org/resource/Antarctic
p27
sg12
g13
sg14
VAntarctic region
p28
sa.