(lp1
(dp2
S'generalizedLabel'
p3
VRegion
p4
sS'term'
p5
VAntarctica
p6
sS'generalizedURI'
p7
Vhttp://wibitaxonomy.org/Region
p8
sS'generalizedFreq'
p9
I25174
sS'subjectURI'
p10
Vhttp://wibitaxonomy.org/Antarctica
p11
sS'inputType'
p12
VLocation
p13
sS'generalizedLemma'
p14
Vregion
p15
sa(dp16
g3
VAntarctica
p17
sg5
g6
sg7
Vhttp://dbpedia.org/resource/Category:Antarctica
p18
sg9
I3195
sg10
Vhttp://dbpedia.org/resource/Antarctica
p19
sg12
g13
sg14
Vantarctica
p20
sa(dp21
g3
VContinents
p22
sg5
g6
sg7
Vhttp://dbpedia.org/resource/Category:Continents
p23
sg9
I1365
sg10
g19
sg12
g13
sg14
Vcontinent
p24
sa(dp25
g3
VContinents
p26
sg5
g6
sg7
Vhttp://dbpedia.org/resource/Category:Continents
p27
sg9
I1365
sg10
Vhttp://dbpedia.org/resource/Category:Antarctica
p28
sg12
g13
sg14
Vcontinent
p29
sa(dp30
g3
VContinents
p31
sg5
g6
sg7
Vhttp://wibitaxonomy.org/Category%3AContinents
p32
sg9
I1365
sg10
Vhttp://wibitaxonomy.org/Category%3AAntarctica
p33
sg12
g13
sg14
Vcontinent
p34
sa(dp35
g3
VTopography
p36
sg5
g6
sg7
Vhttp://wibitaxonomy.org/Category%3ATopography
p37
sg9
I946
sg10
g33
sg12
g13
sg14
Vtopography
p38
sa(dp39
g3
VAntarctic region
p40
sg5
g6
sg7
Vhttp://dbpedia.org/resource/Category:Antarctic_region
p41
sg9
I37
sg10
g19
sg12
g13
sg14
VAntarctic region
p42
sa(dp43
g3
VAntarctic region
p44
sg5
g6
sg7
Vhttp://dbpedia.org/resource/Category:Antarctic_region
p45
sg9
I37
sg10
g28
sg12
g13
sg14
VAntarctic region
p46
sa(dp47
g3
VLandforms
p48
sg5
g6
sg7
Vhttp://wibitaxonomy.org/Category%3ALandforms
p49
sg9
I24
sg10
g33
sg12
g13
sg14
Vlandforms
p50
sa(dp51
g3
VArticles containing video clips
p52
sg5
g6
sg7
Vhttp://dbpedia.org/resource/Category:Articles_containing_video_clips
p53
sg9
I0
sg10
g19
sg12
g13
sg14
VArticles containing video clip
p54
sa(dp55
g3
VPolar regions of the Earth
p56
sg5
g6
sg7
Vhttp://dbpedia.org/resource/Category:Polar_regions_of_the_Earth
p57
sg9
I0
sg10
g19
sg12
g13
sg14
VPolar regions of the earth
p58
sa(dp59
g3
VExtreme points of Earth
p60
sg5
g6
sg7
Vhttp://dbpedia.org/resource/Category:Extreme_points_of_Earth
p61
sg9
I0
sg10
g19
sg12
g13
sg14
VExtreme points of earth
p62
sa(dp63
g3
VWater in Antarctica
p64
sg5
g6
sg7
Vhttp://dbpedia.org/resource/Category:Water_in_Antarctica
p65
sg9
I0
sg10
g19
sg12
g13
sg14
VWater in antarctica
p66
sa(dp67
g3
VWikipedia categories named after continents
p68
sg5
g6
sg7
Vhttp://dbpedia.org/resource/Category:Wikipedia_categories_named_after_continents
p69
sg9
I0
sg10
g28
sg12
g13
sg14
VWikipedia categories named after continent
p70
sa(dp71
g3
VPolar regions of the Earth
p72
sg5
g6
sg7
Vhttp://dbpedia.org/resource/Category:Polar_regions_of_the_Earth
p73
sg9
I0
sg10
g28
sg12
g13
sg14
VPolar regions of the earth
p74
sa(dp75
g3
VSubdivision %5C%28land%5C%29
p76
sg5
g6
sg7
Vhttp://wibitaxonomy.org/Subdivision_%5C%28land%5C%29
p77
sg9
I0
sg10
g11
sg12
g13
sg14
VSubdivision %5c%28land%5c%29
p78
sa(dp79
g3
VAct of Parliament
p80
sg5
g6
sg7
Vhttp://wibitaxonomy.org/Act_of_Parliament
p81
sg9
I0
sg10
g11
sg12
g13
sg14
VAct of parliament
p82
sa.