(lp1
(dp2
S'generalizedLabel'
p3
VRegion
p4
sS'term'
p5
VArctic
p6
sS'generalizedURI'
p7
Vhttp://wibitaxonomy.org/Region
p8
sS'generalizedFreq'
p9
I25174
sS'subjectURI'
p10
Vhttp://wibitaxonomy.org/Arctic
p11
sS'inputType'
p12
VLocation
p13
sS'generalizedLemma'
p14
Vregion
p15
sa(dp16
g3
VArctic
p17
sg5
g6
sg7
Vhttp://dbpedia.org/resource/Category:Arctic
p18
sg9
I8356
sg10
Vhttp://dbpedia.org/resource/Arctic
p19
sg12
g13
sg14
Varctic
p20
sa(dp21
g3
VPhysical geography
p22
sg5
g6
sg7
Vhttp://wibitaxonomy.org/Category%3APhysical_geography
p23
sg9
I41
sg10
Vhttp://wibitaxonomy.org/Category%3AArctic
p24
sg12
g13
sg14
VPhysical geography
p25
sa(dp26
g3
VPolar regions of the Earth
p27
sg5
g6
sg7
Vhttp://dbpedia.org/resource/Category:Polar_regions_of_the_Earth
p28
sg9
I0
sg10
Vhttp://dbpedia.org/resource/Category:Arctic
p29
sg12
g13
sg14
VPolar regions of the earth
p30
sa(dp31
g3
VExtreme points of Earth
p32
sg5
g6
sg7
Vhttp://dbpedia.org/resource/Category:Extreme_points_of_Earth
p33
sg9
I0
sg10
g29
sg12
g13
sg14
VExtreme points of earth
p34
sa(dp35
g3
VPolar regions of the Earth
p36
sg5
g6
sg7
Vhttp://dbpedia.org/resource/Category:Polar_regions_of_the_Earth
p37
sg9
I0
sg10
g19
sg12
g13
sg14
VPolar regions of the earth
p38
sa(dp39
g3
VSubdivision %5C%28land%5C%29
p40
sg5
g6
sg7
Vhttp://wibitaxonomy.org/Subdivision_%5C%28land%5C%29
p41
sg9
I0
sg10
g11
sg12
g13
sg14
VSubdivision %5c%28land%5c%29
p42
sa(dp43
g3
VAct of Parliament
p44
sg5
g6
sg7
Vhttp://wibitaxonomy.org/Act_of_Parliament
p45
sg9
I0
sg10
g11
sg12
g13
sg14
VAct of parliament
p46
sa(dp47
g3
VPolar regions of the Earth
p48
sg5
g6
sg7
Vhttp://wibitaxonomy.org/Category%3APolar_regions_of_the_Earth
p49
sg9
I0
sg10
g24
sg12
g13
sg14
VPolar regions of the earth
p50
sa(dp51
g3
VExtreme points of Earth
p52
sg5
g6
sg7
Vhttp://wibitaxonomy.org/Category%3AExtreme_points_of_Earth
p53
sg9
I0
sg10
g24
sg12
g13
sg14
VExtreme points of earth
p54
sa.