(lp1
(dp2
S'generalizedLabel'
p3
VOceans
p4
sS'term'
p5
VArctic Ocean
p6
sS'generalizedURI'
p7
Vhttp://dbpedia.org/resource/Category:Oceans
p8
sS'generalizedFreq'
p9
I39465
sS'subjectURI'
p10
Vhttp://dbpedia.org/resource/Arctic_Ocean
p11
sS'inputType'
p12
VLocation
p13
sS'generalizedLemma'
p14
Vocean
p15
sa(dp16
g3
VOceans
p17
sg5
g6
sg7
Vhttp://dbpedia.org/resource/Category:Oceans
p18
sg9
I39465
sg10
Vhttp://dbpedia.org/resource/Category:Arctic_Ocean
p19
sg12
g13
sg14
Vocean
p20
sa(dp21
g3
VOceans
p22
sg5
g6
sg7
Vhttp://wibitaxonomy.org/Category%3AOceans
p23
sg9
I39465
sg10
Vhttp://wibitaxonomy.org/Category%3AArctic_Ocean
p24
sg12
g13
sg14
Vocean
p25
sa(dp26
g3
VArctic Ocean
p27
sg5
g6
sg7
Vhttp://dbpedia.org/resource/Category:Arctic_Ocean
p28
sg9
I1362
sg10
g11
sg12
g13
sg14
VArctic ocean
p29
sa(dp30
g3
VBodies of water
p31
sg5
g6
sg7
Vhttp://wibitaxonomy.org/Category%3ABodies_of_water
p32
sg9
I27
sg10
g24
sg12
g13
sg14
VBodies of water
p33
sa(dp34
g3
VArticles containing video clips
p35
sg5
g6
sg7
Vhttp://dbpedia.org/resource/Category:Articles_containing_video_clips
p36
sg9
I0
sg10
g11
sg12
g13
sg14
VArticles containing video clip
p37
sa(dp38
g3
VExtreme points of Earth
p39
sg5
g6
sg7
Vhttp://dbpedia.org/resource/Category:Extreme_points_of_Earth
p40
sg9
I0
sg10
g11
sg12
g13
sg14
VExtreme points of earth
p41
sa(dp42
g3
VLandforms of the Arctic Ocean
p43
sg5
g6
sg7
Vhttp://dbpedia.org/resource/Category:Landforms_of_the_Arctic_Ocean
p44
sg9
I0
sg10
g11
sg12
g13
sg14
VLandforms of the Arctic ocean
p45
sa(dp46
g3
VWikipedia categories named after bodies of water
p47
sg5
g6
sg7
Vhttp://dbpedia.org/resource/Category:Wikipedia_categories_named_after_bodies_of_water
p48
sg9
I0
sg10
g19
sg12
g13
sg14
VWikipedia categories named after bodies of water
p49
sa(dp50
g3
VGeography of the Arctic
p51
sg5
g6
sg7
Vhttp://dbpedia.org/resource/Category:Geography_of_the_Arctic
p52
sg9
I0
sg10
g19
sg12
g13
sg14
VGeography of the arctic
p53
sa(dp54
g3
VWater and the environment
p55
sg5
g6
sg7
Vhttp://wibitaxonomy.org/Category%3AWater_and_the_environment
p56
sg9
I0
sg10
g24
sg12
g13
sg14
VWater and the environment
p57
sa.