(lp1
(dp2
S'generalizedLabel'
p3
VMolecule
p4
sS'term'
p5
Varginine
p6
sS'generalizedURI'
p7
Vhttp://wibitaxonomy.org/Molecule
p8
sS'generalizedFreq'
p9
I6105
sS'subjectURI'
p10
Vhttp://wibitaxonomy.org/Arginine
p11
sS'inputType'
p12
VCompound
p13
sS'generalizedLemma'
p14
Vmolecule
p15
sa(dp16
g3
VAmino acid
p17
sg5
g6
sg7
Vhttp://wibitaxonomy.org/Amino_acid
p18
sg9
I4139
sg10
g11
sg12
g13
sg14
VAmino acid
p19
sa(dp20
g3
VAtom
p21
sg5
g6
sg7
Vhttp://wibitaxonomy.org/Atom
p22
sg9
I1894
sg10
g11
sg12
g13
sg14
Vatom
p23
sa(dp24
g3
Vchemical compound
p25
sg5
g6
sg7
Vhttp://dbpedia.org/ontology/ChemicalCompound
p26
sg9
I76
sg10
Vhttp://dbpedia.org/resource/Arginine
p27
sg12
g13
sg14
Vchemical compound
p28
sa(dp29
g3
VEssential amino acids
p30
sg5
g6
sg7
Vhttp://dbpedia.org/resource/Category:Essential_amino_acids
p31
sg9
I69
sg10
g27
sg12
g13
sg14
VEssential amino acid
p32
sa(dp33
g3
VUrea cycle
p34
sg5
g6
sg7
Vhttp://dbpedia.org/resource/Category:Urea_cycle
p35
sg9
I40
sg10
g27
sg12
g13
sg14
VUrea cycle
p36
sa(dp37
g3
VBasic amino acids
p38
sg5
g6
sg7
Vhttp://dbpedia.org/resource/Category:Basic_amino_acids
p39
sg9
I10
sg10
g27
sg12
g13
sg14
VBasic amino acid
p40
sa(dp41
g3
VProteinogenic amino acids
p42
sg5
g6
sg7
Vhttp://dbpedia.org/resource/Category:Proteinogenic_amino_acids
p43
sg9
I7
sg10
g27
sg12
g13
sg14
VProteinogenic amino acid
p44
sa(dp45
g3
Vchemical substance
p46
sg5
g6
sg7
Vhttp://dbpedia.org/ontology/ChemicalSubstance
p47
sg9
I6
sg10
g27
sg12
g13
sg14
Vchemical substance
p48
sa(dp49
g3
VGuanidines
p50
sg5
g6
sg7
Vhttp://dbpedia.org/resource/Category:Guanidines
p51
sg9
I0
sg10
g27
sg12
g13
sg14
Vguanidines
p52
sa(dp53
g3
VGlucogenic amino acids
p54
sg5
g6
sg7
Vhttp://dbpedia.org/resource/Category:Glucogenic_amino_acids
p55
sg9
I0
sg10
g27
sg12
g13
sg14
VGlucogenic amino acid
p56
sa.