(lp1
(dp2
S'generalizedLabel'
p3
VOceans
p4
sS'term'
p5
VAtlantic Ocean
p6
sS'generalizedURI'
p7
Vhttp://dbpedia.org/resource/Category:Oceans
p8
sS'generalizedFreq'
p9
I39465
sS'subjectURI'
p10
Vhttp://dbpedia.org/resource/Atlantic_Ocean
p11
sS'inputType'
p12
VLocation
p13
sS'generalizedLemma'
p14
Vocean
p15
sa(dp16
g3
VOceans
p17
sg5
g6
sg7
Vhttp://dbpedia.org/resource/Category:Oceans
p18
sg9
I39465
sg10
Vhttp://dbpedia.org/resource/Category:Atlantic_Ocean
p19
sg12
g13
sg14
Vocean
p20
sa(dp21
g3
VOceans
p22
sg5
g6
sg7
Vhttp://wibitaxonomy.org/Category%3AOceans
p23
sg9
I39465
sg10
Vhttp://wibitaxonomy.org/Category%3AAtlantic_Ocean
p24
sg12
g13
sg14
Vocean
p25
sa(dp26
g3
VWorld
p27
sg5
g6
sg7
Vhttp://wibitaxonomy.org/World
p28
sg9
I10542
sg10
Vhttp://wibitaxonomy.org/Atlantic_Ocean
p29
sg12
g13
sg14
Vworld
p30
sa(dp31
g3
VAtlantic Ocean
p32
sg5
g6
sg7
Vhttp://dbpedia.org/resource/Category:Atlantic_Ocean
p33
sg9
I2010
sg10
g11
sg12
g13
sg14
VAtlantic ocean
p34
sa(dp35
g3
VBodies of water
p36
sg5
g6
sg7
Vhttp://wibitaxonomy.org/Category%3ABodies_of_water
p37
sg9
I27
sg10
g24
sg12
g13
sg14
VBodies of water
p38
sa(dp39
g3
VHuman condition
p40
sg5
g6
sg7
Vhttp://wibitaxonomy.org/Human_condition
p41
sg9
I15
sg10
g29
sg12
g13
sg14
VHuman condition
p42
sa(dp43
g3
VCommon name
p44
sg5
g6
sg7
Vhttp://wibitaxonomy.org/Common_name
p45
sg9
I3
sg10
g29
sg12
g13
sg14
VCommon name
p46
sa(dp47
g3
VArticles containing video clips
p48
sg5
g6
sg7
Vhttp://dbpedia.org/resource/Category:Articles_containing_video_clips
p49
sg9
I0
sg10
g11
sg12
g13
sg14
VArticles containing video clip
p50
sa(dp51
g3
VLandforms of the Atlantic Ocean
p52
sg5
g6
sg7
Vhttp://dbpedia.org/resource/Category:Landforms_of_the_Atlantic_Ocean
p53
sg9
I0
sg10
g11
sg12
g13
sg14
VLandforms of the Atlantic ocean
p54
sa(dp55
g3
VHistory of the Atlantic Ocean
p56
sg5
g6
sg7
Vhttp://dbpedia.org/resource/Category:History_of_the_Atlantic_Ocean
p57
sg9
I0
sg10
g11
sg12
g13
sg14
VHistory of the Atlantic ocean
p58
sa(dp59
g3
VWikipedia categories named after bodies of water
p60
sg5
g6
sg7
Vhttp://dbpedia.org/resource/Category:Wikipedia_categories_named_after_bodies_of_water
p61
sg9
I0
sg10
g19
sg12
g13
sg14
VWikipedia categories named after bodies of water
p62
sa(dp63
g3
VBinomial nomenclature
p64
sg5
g6
sg7
Vhttp://wibitaxonomy.org/Binomial_nomenclature
p65
sg9
I0
sg10
g29
sg12
g13
sg14
VBinomial nomenclature
p66
sa(dp67
g3
VWater and the environment
p68
sg5
g6
sg7
Vhttp://wibitaxonomy.org/Category%3AWater_and_the_environment
p69
sg9
I0
sg10
g24
sg12
g13
sg14
VWater and the environment
p70
sa.