(lp1
(dp2
S'generalizedLabel'
p3
Vplace
p4
sS'term'
p5
VAustralia
p6
sS'generalizedURI'
p7
Vhttp://dbpedia.org/ontology/Place
p8
sS'generalizedFreq'
p9
I6273
sS'subjectURI'
p10
Vhttp://dbpedia.org/resource/Australia
p11
sS'inputType'
p12
VLocation
p13
sS'generalizedLemma'
p14
g4
sa(dp15
g3
Vcountry
p16
sg5
g6
sg7
Vhttp://dbpedia.org/ontology/Country
p17
sg9
I5355
sg10
g11
sg12
g13
sg14
g16
sa(dp18
g3
VCountry
p19
sg5
g6
sg7
Vhttp://wibitaxonomy.org/Country
p20
sg9
I5355
sg10
Vhttp://wibitaxonomy.org/Australia
p21
sg12
g13
sg14
Vcountry
p22
sa(dp23
g3
VAustralia
p24
sg5
g6
sg7
Vhttp://dbpedia.org/resource/Category:Australia
p25
sg9
I3661
sg10
g11
sg12
g13
sg14
Vaustralia
p26
sa(dp27
g3
VIsland countries
p28
sg5
g6
sg7
Vhttp://dbpedia.org/resource/Category:Island_countries
p29
sg9
I5
sg10
Vhttp://dbpedia.org/resource/Category:Australia
p30
sg12
g13
sg14
VIsland country
p31
sa(dp32
g3
Vpopulated place
p33
sg5
g6
sg7
Vhttp://dbpedia.org/ontology/PopulatedPlace
p34
sg9
I2
sg10
g11
sg12
g13
sg14
Vpopulated place
p35
sa(dp36
g3
VFormer British colonies
p37
sg5
g6
sg7
Vhttp://dbpedia.org/resource/Category:Former_British_colonies
p38
sg9
I1
sg10
g30
sg12
g13
sg14
VFormer British colony
p39
sa(dp40
g3
VLiberal democracies
p41
sg5
g6
sg7
Vhttp://dbpedia.org/resource/Category:Liberal_democracies
p42
sg9
I1
sg10
g30
sg12
g13
sg14
VLiberal democracy
p43
sa(dp44
g3
VAustralia (continent)
p45
sg5
g6
sg7
Vhttp://dbpedia.org/resource/Category:Australia_(continent)
p46
sg9
I1
sg10
g30
sg12
g13
sg14
VAustralia (continent)
p47
sa(dp48
g3
VEnglish-speaking countries and territories
p49
sg5
g6
sg7
Vhttp://dbpedia.org/resource/Category:English-speaking_countries_and_territories
p50
sg9
I0
sg10
g11
sg12
g13
sg14
VEnglish-speaking countries and territory
p51
sa(dp52
g3
VMember states of the United Nations
p53
sg5
g6
sg7
Vhttp://dbpedia.org/resource/Category:Member_states_of_the_United_Nations
p54
sg9
I0
sg10
g11
sg12
g13
sg14
VMember states of the United nation
p55
sa(dp56
g3
Nsg5
g6
sg7
Vhttp://dbpedia.org/ontology/Location
p57
sg9
I0
sg10
g11
sg12
g13
sg14
Nsa(dp58
g3
VStates and territories established in 1901
p59
sg5
g6
sg7
Vhttp://dbpedia.org/resource/Category:States_and_territories_established_in_1901
p60
sg9
I0
sg10
g30
sg12
g13
sg14
VStates and territories established in 1901
p61
sa(dp62
g3
VEnglish-speaking countries and territories
p63
sg5
g6
sg7
Vhttp://dbpedia.org/resource/Category:English-speaking_countries_and_territories
p64
sg9
I0
sg10
g30
sg12
g13
sg14
VEnglish-speaking countries and territory
p65
sa(dp66
g3
VWikipedia categories named after countries
p67
sg5
g6
sg7
Vhttp://dbpedia.org/resource/Category:Wikipedia_categories_named_after_countries
p68
sg9
I0
sg10
g30
sg12
g13
sg14
VWikipedia categories named after country
p69
sa(dp70
g3
VMember states of the Commonwealth of Nations
p71
sg5
g6
sg7
Vhttp://dbpedia.org/resource/Category:Member_states_of_the_Commonwealth_of_Nations
p72
sg9
I0
sg10
g30
sg12
g13
sg14
VMember states of the Commonwealth of nation
p73
sa(dp74
g3
VConstitutional monarchies
p75
sg5
g6
sg7
Vhttp://dbpedia.org/resource/Category:Constitutional_monarchies
p76
sg9
I0
sg10
g30
sg12
g13
sg14
VConstitutional monarchy
p77
sa(dp78
g3
VCountries in Oceania
p79
sg5
g6
sg7
Vhttp://dbpedia.org/resource/Category:Countries_in_Oceania
p80
sg9
I0
sg10
g30
sg12
g13
sg14
VCountries in oceania
p81
sa(dp82
g3
VPolitical geography
p83
sg5
g6
sg7
Vhttp://wibitaxonomy.org/Political_geography
p84
sg9
I0
sg10
g21
sg12
g13
sg14
VPolitical geography
p85
sa(dp86
g3
VField %5C%28mathematics%5C%29
p87
sg5
g6
sg7
Vhttp://wibitaxonomy.org/Field_%5C%28mathematics%5C%29
p88
sg9
I0
sg10
g21
sg12
g13
sg14
VField %5c%28mathematics%5c%29
p89
sa(dp90
g3
VCountries of the Indian Ocean
p91
sg5
g6
sg7
Vhttp://wibitaxonomy.org/Category%3ACountries_of_the_Indian_Ocean
p92
sg9
I0
sg10
Vhttp://wibitaxonomy.org/Category%3AAustralia
p93
sg12
g13
sg14
VCountries of the Indian ocean
p94
sa(dp95
g3
VCountries bordering water bodies
p96
sg5
g6
sg7
Vhttp://wibitaxonomy.org/Category%3ACountries_bordering_water_bodies
p97
sg9
I0
sg10
g93
sg12
g13
sg14
VCountries bordering water body
p98
sa(dp99
g3
VCountries by characteristic
p100
sg5
g6
sg7
Vhttp://wibitaxonomy.org/Category%3ACountries_by_characteristic
p101
sg9
I0
sg10
g93
sg12
g13
sg14
VCountries by characteristic
p102
sa.