(lp1
(dp2
S'generalizedLabel'
p3
VSea
p4
sS'term'
p5
VBaltic Sea
p6
sS'generalizedURI'
p7
Vhttp://wibitaxonomy.org/Sea
p8
sS'generalizedFreq'
p9
I27324
sS'subjectURI'
p10
Vhttp://wibitaxonomy.org/Baltic_Sea
p11
sS'inputType'
p12
VLocation
p13
sS'generalizedLemma'
p14
Vsea
p15
sa(dp16
g3
VSeas
p17
sg5
g6
sg7
Vhttp://wibitaxonomy.org/Category%3ASeas
p18
sg9
I27324
sg10
Vhttp://wibitaxonomy.org/Category%3ABaltic_Sea
p19
sg12
g13
sg14
Vsea
p20
sa(dp21
g3
VBaltic Sea
p22
sg5
g6
sg7
Vhttp://dbpedia.org/resource/Category:Baltic_Sea
p23
sg9
I745
sg10
Vhttp://dbpedia.org/resource/Baltic_Sea
p24
sg12
g13
sg14
VBaltic sea
p25
sa(dp26
g3
VEuropean seas
p27
sg5
g6
sg7
Vhttp://dbpedia.org/resource/Category:European_seas
p28
sg9
I44
sg10
g24
sg12
g13
sg14
VEuropean sea
p29
sa(dp30
g3
VEuropean seas
p31
sg5
g6
sg7
Vhttp://dbpedia.org/resource/Category:European_seas
p32
sg9
I44
sg10
Vhttp://dbpedia.org/resource/Category:Baltic_Sea
p33
sg12
g13
sg14
VEuropean sea
p34
sa(dp35
g3
VEuropean seas
p36
sg5
g6
sg7
Vhttp://wibitaxonomy.org/Category%3AEuropean_seas
p37
sg9
I44
sg10
g19
sg12
g13
sg14
VEuropean sea
p38
sa(dp39
g3
VBody of water
p40
sg5
g6
sg7
Vhttp://wibitaxonomy.org/Body_of_water
p41
sg9
I27
sg10
g11
sg12
g13
sg14
VBody of water
p42
sa(dp43
g3
VBodies of water
p44
sg5
g6
sg7
Vhttp://wibitaxonomy.org/Category%3ABodies_of_water
p45
sg9
I27
sg10
g19
sg12
g13
sg14
VBodies of water
p46
sa(dp47
g3
VGeography of Poland
p48
sg5
g6
sg7
Vhttp://dbpedia.org/resource/Category:Geography_of_Poland
p49
sg9
I0
sg10
g24
sg12
g13
sg14
VGeography of poland
p50
sa(dp51
g3
VGeography of Sweden
p52
sg5
g6
sg7
Vhttp://dbpedia.org/resource/Category:Geography_of_Sweden
p53
sg9
I0
sg10
g24
sg12
g13
sg14
VGeography of sweden
p54
sa(dp55
g3
VGeography of Kaliningrad Oblast
p56
sg5
g6
sg7
Vhttp://dbpedia.org/resource/Category:Geography_of_Kaliningrad_Oblast
p57
sg9
I0
sg10
g24
sg12
g13
sg14
VGeography of Kaliningrad oblast
p58
sa(dp59
g3
VGeography of Denmark
p60
sg5
g6
sg7
Vhttp://dbpedia.org/resource/Category:Geography_of_Denmark
p61
sg9
I0
sg10
g24
sg12
g13
sg14
VGeography of denmark
p62
sa(dp63
g3
VFederal waterways in Germany
p64
sg5
g6
sg7
Vhttp://dbpedia.org/resource/Category:Federal_waterways_in_Germany
p65
sg9
I0
sg10
g24
sg12
g13
sg14
VFederal waterways in germany
p66
sa(dp67
g3
VSeas of Russia
p68
sg5
g6
sg7
Vhttp://dbpedia.org/resource/Category:Seas_of_Russia
p69
sg9
I0
sg10
g24
sg12
g13
sg14
VSeas of russia
p70
sa(dp71
g3
VGeography of Estonia
p72
sg5
g6
sg7
Vhttp://dbpedia.org/resource/Category:Geography_of_Estonia
p73
sg9
I0
sg10
g24
sg12
g13
sg14
VGeography of estonia
p74
sa(dp75
g3
VSeas of the Atlantic Ocean
p76
sg5
g6
sg7
Vhttp://dbpedia.org/resource/Category:Seas_of_the_Atlantic_Ocean
p77
sg9
I0
sg10
g24
sg12
g13
sg14
VSeas of the Atlantic ocean
p78
sa(dp79
g3
VGeography of Finland
p80
sg5
g6
sg7
Vhttp://dbpedia.org/resource/Category:Geography_of_Finland
p81
sg9
I0
sg10
g24
sg12
g13
sg14
VGeography of finland
p82
sa(dp83
g3
VGeography of Leningrad Oblast
p84
sg5
g6
sg7
Vhttp://dbpedia.org/resource/Category:Geography_of_Leningrad_Oblast
p85
sg9
I0
sg10
g24
sg12
g13
sg14
VGeography of Leningrad oblast
p86
sa(dp87
g3
VGeography of Saint Petersburg
p88
sg5
g6
sg7
Vhttp://dbpedia.org/resource/Category:Geography_of_Saint_Petersburg
p89
sg9
I0
sg10
g24
sg12
g13
sg14
VGeography of Saint petersburg
p90
sa(dp91
g3
VGeography of Lithuania
p92
sg5
g6
sg7
Vhttp://dbpedia.org/resource/Category:Geography_of_Lithuania
p93
sg9
I0
sg10
g24
sg12
g13
sg14
VGeography of lithuania
p94
sa(dp95
g3
VWikipedia categories named after bodies of water
p96
sg5
g6
sg7
Vhttp://dbpedia.org/resource/Category:Wikipedia_categories_named_after_bodies_of_water
p97
sg9
I0
sg10
g33
sg12
g13
sg14
VWikipedia categories named after bodies of water
p98
sa(dp99
g3
VSeas of the Atlantic Ocean
p100
sg5
g6
sg7
Vhttp://dbpedia.org/resource/Category:Seas_of_the_Atlantic_Ocean
p101
sg9
I0
sg10
g33
sg12
g13
sg14
VSeas of the Atlantic ocean
p102
sa(dp103
g3
VGeography of Northern Europe
p104
sg5
g6
sg7
Vhttp://dbpedia.org/resource/Category:Geography_of_Northern_Europe
p105
sg9
I0
sg10
g33
sg12
g13
sg14
VGeography of Northern europe
p106
sa(dp107
g3
VMediterranean sea %5C%28oceanography%5C%29
p108
sg5
g6
sg7
Vhttp://wibitaxonomy.org/Mediterranean_sea_%5C%28oceanography%5C%29
p109
sg9
I0
sg10
g11
sg12
g13
sg14
VMediterranean sea %5c%28oceanography%5c%29
p110
sa.