(lp1
(dp2
S'generalizedLabel'
p3
Vplace
p4
sS'term'
p5
VBermuda
p6
sS'generalizedURI'
p7
Vhttp://dbpedia.org/ontology/Place
p8
sS'generalizedFreq'
p9
I6273
sS'subjectURI'
p10
Vhttp://dbpedia.org/resource/Bermuda
p11
sS'inputType'
p12
VLocation
p13
sS'generalizedLemma'
p14
g4
sa(dp15
g3
Vcountry
p16
sg5
g6
sg7
Vhttp://dbpedia.org/ontology/Country
p17
sg9
I5355
sg10
g11
sg12
g13
sg14
g16
sa(dp18
g3
VBermuda
p19
sg5
g6
sg7
Vhttp://dbpedia.org/resource/Category:Bermuda
p20
sg9
I472
sg10
g11
sg12
g13
sg14
Vbermuda
p21
sa(dp22
g3
VVolcanic islands
p23
sg5
g6
sg7
Vhttp://dbpedia.org/resource/Category:Volcanic_islands
p24
sg9
I26
sg10
Vhttp://dbpedia.org/resource/Category:Bermuda
p25
sg12
g13
sg14
VVolcanic island
p26
sa(dp27
g3
VIsland countries
p28
sg5
g6
sg7
Vhttp://dbpedia.org/resource/Category:Island_countries
p29
sg9
I5
sg10
g11
sg12
g13
sg14
VIsland country
p30
sa(dp31
g3
VIsland countries
p32
sg5
g6
sg7
Vhttp://dbpedia.org/resource/Category:Island_countries
p33
sg9
I5
sg10
g25
sg12
g13
sg14
VIsland country
p34
sa(dp35
g3
Vpopulated place
p36
sg5
g6
sg7
Vhttp://dbpedia.org/ontology/PopulatedPlace
p37
sg9
I2
sg10
g11
sg12
g13
sg14
Vpopulated place
p38
sa(dp39
g3
VFormer British colonies
p40
sg5
g6
sg7
Vhttp://dbpedia.org/resource/Category:Former_British_colonies
p41
sg9
I1
sg10
g11
sg12
g13
sg14
VFormer British colony
p42
sa(dp43
g3
VBermuda Triangle
p44
sg5
g6
sg7
Vhttp://dbpedia.org/resource/Category:Bermuda_Triangle
p45
sg9
I1
sg10
g11
sg12
g13
sg14
VBermuda triangle
p46
sa(dp47
g3
VDependent territories in North America
p48
sg5
g6
sg7
Vhttp://dbpedia.org/resource/Category:Dependent_territories_in_North_America
p49
sg9
I0
sg10
g11
sg12
g13
sg14
VDependent territories in North america
p50
sa(dp51
g3
VArchipelagoes of the Atlantic Ocean
p52
sg5
g6
sg7
Vhttp://dbpedia.org/resource/Category:Archipelagoes_of_the_Atlantic_Ocean
p53
sg9
I0
sg10
g11
sg12
g13
sg14
VArchipelagoes of the Atlantic ocean
p54
sa(dp55
g3
VStates and territories established in 1612
p56
sg5
g6
sg7
Vhttp://dbpedia.org/resource/Category:States_and_territories_established_in_1612
p57
sg9
I0
sg10
g11
sg12
g13
sg14
VStates and territories established in 1612
p58
sa(dp59
g3
VIslands of the North Atlantic Ocean
p60
sg5
g6
sg7
Vhttp://dbpedia.org/resource/Category:Islands_of_the_North_Atlantic_Ocean
p61
sg9
I0
sg10
g11
sg12
g13
sg14
VIslands of the North Atlantic ocean
p62
sa(dp63
g3
VBritish Overseas Territories
p64
sg5
g6
sg7
Vhttp://dbpedia.org/resource/Category:British_Overseas_Territories
p65
sg9
I0
sg10
g11
sg12
g13
sg14
VBritish Overseas territory
p66
sa(dp67
g3
VEnglish-speaking countries and territories
p68
sg5
g6
sg7
Vhttp://dbpedia.org/resource/Category:English-speaking_countries_and_territories
p69
sg9
I0
sg10
g11
sg12
g13
sg14
VEnglish-speaking countries and territory
p70
sa(dp71
g3
VVolcanic calderas of North America
p72
sg5
g6
sg7
Vhttp://dbpedia.org/resource/Category:Volcanic_calderas_of_North_America
p73
sg9
I0
sg10
g11
sg12
g13
sg14
VVolcanic calderas of North america
p74
sa(dp75
g3
VVolcanoes of Bermuda
p76
sg5
g6
sg7
Vhttp://dbpedia.org/resource/Category:Volcanoes_of_Bermuda
p77
sg9
I0
sg10
g11
sg12
g13
sg14
VVolcanoes of bermuda
p78
sa(dp79
g3
VSpecial territories of the European Union
p80
sg5
g6
sg7
Vhttp://dbpedia.org/resource/Category:Special_territories_of_the_European_Union
p81
sg9
I0
sg10
g11
sg12
g13
sg14
VSpecial territories of the European union
p82
sa(dp83
g3
Nsg5
g6
sg7
Vhttp://dbpedia.org/ontology/Location
p84
sg9
I0
sg10
g11
sg12
g13
sg14
Nsa(dp85
g3
VDependent territories in North America
p86
sg5
g6
sg7
Vhttp://dbpedia.org/resource/Category:Dependent_territories_in_North_America
p87
sg9
I0
sg10
g25
sg12
g13
sg14
VDependent territories in North america
p88
sa(dp89
g3
VArchipelagoes of the Atlantic Ocean
p90
sg5
g6
sg7
Vhttp://dbpedia.org/resource/Category:Archipelagoes_of_the_Atlantic_Ocean
p91
sg9
I0
sg10
g25
sg12
g13
sg14
VArchipelagoes of the Atlantic ocean
p92
sa(dp93
g3
VBritish Overseas Territories
p94
sg5
g6
sg7
Vhttp://dbpedia.org/resource/Category:British_Overseas_Territories
p95
sg9
I0
sg10
g25
sg12
g13
sg14
VBritish Overseas territory
p96
sa(dp97
g3
VWikipedia categories named after dependent territories
p98
sg5
g6
sg7
Vhttp://dbpedia.org/resource/Category:Wikipedia_categories_named_after_dependent_territories
p99
sg9
I0
sg10
g25
sg12
g13
sg14
VWikipedia categories named after dependent territory
p100
sa(dp101
g3
VWikipedia categories named after islands
p102
sg5
g6
sg7
Vhttp://dbpedia.org/resource/Category:Wikipedia_categories_named_after_islands
p103
sg9
I0
sg10
g25
sg12
g13
sg14
VWikipedia categories named after island
p104
sa(dp105
g3
VSpecial territories of the European Union
p106
sg5
g6
sg7
Vhttp://dbpedia.org/resource/Category:Special_territories_of_the_European_Union
p107
sg9
I0
sg10
g25
sg12
g13
sg14
VSpecial territories of the European union
p108
sa(dp109
g3
VBritish Overseas Territories
p110
sg5
g6
sg7
Vhttp://wibitaxonomy.org/British_Overseas_Territories
p111
sg9
I0
sg10
Vhttp://wibitaxonomy.org/Bermuda
p112
sg12
g13
sg14
VBritish Overseas territory
p113
sa(dp114
g3
VTerritory %5C%28country subdivision%5C%29
p115
sg5
g6
sg7
Vhttp://wibitaxonomy.org/Territory_%5C%28country_subdivision%5C%29
p116
sg9
I0
sg10
g112
sg12
g13
sg14
VTerritory %5C%28country subdivision%5c%29
p117
sa(dp118
g3
VArea %5C%28country subdivision%5C%29
p119
sg5
g6
sg7
Vhttp://wibitaxonomy.org/Area_%5C%28country_subdivision%5C%29
p120
sg9
I0
sg10
g112
sg12
g13
sg14
VArea %5C%28country subdivision%5c%29
p121
sa(dp122
g3
VBritish Overseas Territories
p123
sg5
g6
sg7
Vhttp://wibitaxonomy.org/Category%3ABritish_Overseas_Territories
p124
sg9
I0
sg10
Vhttp://wibitaxonomy.org/Category%3ABermuda
p125
sg12
g13
sg14
VBritish Overseas territory
p126
sa(dp127
g3
VBritish Overseas Territories and Crown Dependencies
p128
sg5
g6
sg7
Vhttp://wibitaxonomy.org/Category%3ABritish_Overseas_Territories_and_Crown_Dependencies
p129
sg9
I0
sg10
g125
sg12
g13
sg14
VBritish Overseas Territories and Crown dependency
p130
sa(dp131
g3
VDependent territories by country
p132
sg5
g6
sg7
Vhttp://wibitaxonomy.org/Category%3ADependent_territories_by_country
p133
sg9
I0
sg10
g125
sg12
g13
sg14
VDependent territories by country
p134
sa.