(lp1
(dp2
S'generalizedLabel'
p3
VPlant
p4
sS'term'
p5
VC. watsonii
p6
sS'generalizedURI'
p7
Vhttp://dbpedia.org/resource/Plant
p8
sS'generalizedFreq'
p9
I32772
sS'subjectURI'
p10
Vhttp://dbpedia.org/resource/Chorizanthe_watsonii
p11
sS'inputType'
p12
VSpecies
p13
sS'generalizedLemma'
p14
Vplant
p15
sa(dp16
g3
Vplant
p17
sg5
g6
sg7
Vhttp://dbpedia.org/ontology/Plant
p18
sg9
I17362
sg10
g11
sg12
g13
sg14
g17
sa(dp19
g3
Veukaryote
p20
sg5
g6
sg7
Vhttp://dbpedia.org/ontology/Eukaryote
p21
sg9
I1907
sg10
g11
sg12
g13
sg14
g20
sa(dp22
g3
Vspecies
p23
sg5
g6
sg7
Vhttp://dbpedia.org/ontology/Species
p24
sg9
I5
sg10
g11
sg12
g13
sg14
Vspecie
p25
sa(dp26
g3
VChorizanthe
p27
sg5
g6
sg7
Vhttp://dbpedia.org/resource/Category:Chorizanthe
p28
sg9
I4
sg10
g11
sg12
g13
sg14
Vchorizanthe
p29
sa(dp30
g3
VFlora of the Western United States
p31
sg5
g6
sg7
Vhttp://dbpedia.org/resource/Category:Flora_of_the_Western_United_States
p32
sg9
I0
sg10
g11
sg12
g13
sg14
VFlora of the Western United state
p33
sa(dp34
g3
VFlora of the California desert regions
p35
sg5
g6
sg7
Vhttp://dbpedia.org/resource/Category:Flora_of_the_California_desert_regions
p36
sg9
I0
sg10
g11
sg12
g13
sg14
VFlora of the California desert region
p37
sa(dp38
g3
VFlora of the Southwestern United States
p39
sg5
g6
sg7
Vhttp://dbpedia.org/resource/Category:Flora_of_the_Southwestern_United_States
p40
sg9
I0
sg10
g11
sg12
g13
sg14
VFlora of the Southwestern United state
p41
sa(dp42
g3
VNorth American desert flora
p43
sg5
g6
sg7
Vhttp://dbpedia.org/resource/Category:North_American_desert_flora
p44
sg9
I0
sg10
g11
sg12
g13
sg14
VNorth American desert flora
p45
sa(dp46
g3
VPlants described in 1870
p47
sg5
g6
sg7
Vhttp://dbpedia.org/resource/Category:Plants_described_in_1870
p48
sg9
I0
sg10
g11
sg12
g13
sg14
VPlants described in 1870
p49
sa(dp50
g3
VEudicots
p51
sg5
g6
sg7
Vhttp://dbpedia.org/resource/Eudicots
p52
sg9
I0
sg10
g11
sg12
g13
sg14
Veudicots
p53
sa.