(lp1
(dp2
S'generalizedLabel'
p3
VMatter
p4
sS'term'
p5
Vcadmium
p6
sS'generalizedURI'
p7
Vhttp://wibitaxonomy.org/Matter
p8
sS'generalizedFreq'
p9
I7091
sS'subjectURI'
p10
Vhttp://wibitaxonomy.org/Cadmium
p11
sS'inputType'
p12
VCompound
p13
sS'generalizedLemma'
p14
Vmatter
p15
sa(dp16
g3
VChemistry
p17
sg5
g6
sg7
Vhttp://wibitaxonomy.org/Category%3AChemistry
p18
sg9
I4471
sg10
Vhttp://wibitaxonomy.org/Category%3ACadmium
p19
sg12
g13
sg14
Vchemistry
p20
sa(dp21
g3
VCadmium
p22
sg5
g6
sg7
Vhttp://dbpedia.org/resource/Category:Cadmium
p23
sg9
I406
sg10
Vhttp://dbpedia.org/resource/Cadmium
p24
sg12
g13
sg14
Vcadmium
p25
sa(dp26
g3
VTransition metals
p27
sg5
g6
sg7
Vhttp://dbpedia.org/resource/Category:Transition_metals
p28
sg9
I193
sg10
g24
sg12
g13
sg14
VTransition metal
p29
sa(dp30
g3
VTransition metals
p31
sg5
g6
sg7
Vhttp://dbpedia.org/resource/Category:Transition_metals
p32
sg9
I193
sg10
Vhttp://dbpedia.org/resource/Category:Cadmium
p33
sg12
g13
sg14
VTransition metal
p34
sa(dp35
g3
VToxicology
p36
sg5
g6
sg7
Vhttp://dbpedia.org/resource/Category:Toxicology
p37
sg9
I110
sg10
g24
sg12
g13
sg14
Vtoxicology
p38
sa(dp39
g3
VChemical elements
p40
sg5
g6
sg7
Vhttp://dbpedia.org/resource/Category:Chemical_elements
p41
sg9
I29
sg10
g24
sg12
g13
sg14
VChemical element
p42
sa(dp43
g3
VChemical elements
p44
sg5
g6
sg7
Vhttp://dbpedia.org/resource/Category:Chemical_elements
p45
sg9
I29
sg10
g33
sg12
g13
sg14
VChemical element
p46
sa(dp47
g3
VChemical element
p48
sg5
g6
sg7
Vhttp://wibitaxonomy.org/Chemical_element
p49
sg9
I29
sg10
g11
sg12
g13
sg14
VChemical element
p50
sa(dp51
g3
VChemical elements
p52
sg5
g6
sg7
Vhttp://wibitaxonomy.org/Category%3AChemical_elements
p53
sg9
I29
sg10
g19
sg12
g13
sg14
VChemical element
p54
sa(dp55
g3
VSoil contamination
p56
sg5
g6
sg7
Vhttp://dbpedia.org/resource/Category:Soil_contamination
p57
sg9
I12
sg10
g24
sg12
g13
sg14
VSoil contamination
p58
sa(dp59
g3
VChemical substance
p60
sg5
g6
sg7
Vhttp://wibitaxonomy.org/Chemical_substance
p61
sg9
I6
sg10
g11
sg12
g13
sg14
VChemical substance
p62
sa(dp63
g3
VChemical substances
p64
sg5
g6
sg7
Vhttp://wibitaxonomy.org/Category%3AChemical_substances
p65
sg9
I6
sg10
g19
sg12
g13
sg14
VChemical substance
p66
sa(dp67
g3
VOccupational safety and health
p68
sg5
g6
sg7
Vhttp://dbpedia.org/resource/Category:Occupational_safety_and_health
p69
sg9
I1
sg10
g24
sg12
g13
sg14
VOccupational safety and health
p70
sa(dp71
g3
VTesticular toxicants
p72
sg5
g6
sg7
Vhttp://dbpedia.org/resource/Category:Testicular_toxicants
p73
sg9
I0
sg10
g24
sg12
g13
sg14
VTesticular toxicant
p74
sa(dp75
g3
VBiology and pharmacology of chemical elements
p76
sg5
g6
sg7
Vhttp://dbpedia.org/resource/Category:Biology_and_pharmacology_of_chemical_elements
p77
sg9
I0
sg10
g24
sg12
g13
sg14
VBiology and pharmacology of chemical element
p78
sa(dp79
g3
VIARC Group 1 carcinogens
p80
sg5
g6
sg7
Vhttp://dbpedia.org/resource/Category:IARC_Group_1_carcinogens
p81
sg9
I0
sg10
g24
sg12
g13
sg14
VIARC Group 1 carcinogen
p82
sa(dp83
g3
VEndocrine disruptors
p84
sg5
g6
sg7
Vhttp://dbpedia.org/resource/Category:Endocrine_disruptors
p85
sg9
I0
sg10
g24
sg12
g13
sg14
VEndocrine disruptors
p86
sa(dp87
g3
VWikipedia categories named after chemical elements
p88
sg5
g6
sg7
Vhttp://dbpedia.org/resource/Category:Wikipedia_categories_named_after_chemical_elements
p89
sg9
I0
sg10
g33
sg12
g13
sg14
VWikipedia categories named after chemical element
p90
sa.