(lp1
(dp2
S'generalizedLabel'
p3
VMatter
p4
sS'term'
p5
Vcalcium carbonate
p6
sS'generalizedURI'
p7
Vhttp://wibitaxonomy.org/Matter
p8
sS'generalizedFreq'
p9
I7091
sS'subjectURI'
p10
Vhttp://wibitaxonomy.org/Calcium_carbonate
p11
sS'inputType'
p12
VCompound
p13
sS'generalizedLemma'
p14
Vmatter
p15
sa(dp16
g3
VCarbonates
p17
sg5
g6
sg7
Vhttp://dbpedia.org/resource/Category:Carbonates
p18
sg9
I4660
sg10
Vhttp://dbpedia.org/resource/Calcium_carbonate
p19
sg12
g13
sg14
Vcarbonate
p20
sa(dp21
g3
VLimestone
p22
sg5
g6
sg7
Vhttp://dbpedia.org/resource/Category:Limestone
p23
sg9
I357
sg10
g19
sg12
g13
sg14
Vlimestone
p24
sa(dp25
g3
Vchemical compound
p26
sg5
g6
sg7
Vhttp://dbpedia.org/ontology/ChemicalCompound
p27
sg9
I76
sg10
g19
sg12
g13
sg14
Vchemical compound
p28
sa(dp29
g3
VChemical compound
p30
sg5
g6
sg7
Vhttp://wibitaxonomy.org/Chemical_compound
p31
sg9
I76
sg10
g11
sg12
g13
sg14
VChemical compound
p32
sa(dp33
g3
Vchemical substance
p34
sg5
g6
sg7
Vhttp://dbpedia.org/ontology/ChemicalSubstance
p35
sg9
I6
sg10
g19
sg12
g13
sg14
Vchemical substance
p36
sa(dp37
g3
VChemical substance
p38
sg5
g6
sg7
Vhttp://wibitaxonomy.org/Chemical_substance
p39
sg9
I6
sg10
g11
sg12
g13
sg14
VChemical substance
p40
sa(dp41
g3
VAntacids
p42
sg5
g6
sg7
Vhttp://dbpedia.org/resource/Category:Antacids
p43
sg9
I5
sg10
g19
sg12
g13
sg14
Vantacid
p44
sa(dp45
g3
VCalcium compounds
p46
sg5
g6
sg7
Vhttp://dbpedia.org/resource/Category:Calcium_compounds
p47
sg9
I1
sg10
g19
sg12
g13
sg14
VCalcium compound
p48
sa(dp49
g3
VExcipients
p50
sg5
g6
sg7
Vhttp://dbpedia.org/resource/Category:Excipients
p51
sg9
I0
sg10
g19
sg12
g13
sg14
Vexcipients
p52
sa(dp53
g3
VPhosphate binders
p54
sg5
g6
sg7
Vhttp://dbpedia.org/resource/Category:Phosphate_binders
p55
sg9
I0
sg10
g19
sg12
g13
sg14
VPhosphate binder
p56
sa.