(lp1
(dp2
S'generalizedLabel'
p3
Vregion
p4
sS'term'
p5
VCalifornia
p6
sS'generalizedURI'
p7
Vhttp://dbpedia.org/ontology/Region
p8
sS'generalizedFreq'
p9
I25174
sS'subjectURI'
p10
Vhttp://dbpedia.org/resource/California
p11
sS'inputType'
p12
VLocation
p13
sS'generalizedLemma'
p14
g4
sa(dp15
g3
VCommunity
p16
sg5
g6
sg7
Vhttp://wibitaxonomy.org/Community
p17
sg9
I17521
sg10
Vhttp://wibitaxonomy.org/California
p18
sg12
g13
sg14
Vcommunity
p19
sa(dp20
g3
Vplace
p21
sg5
g6
sg7
Vhttp://dbpedia.org/ontology/Place
p22
sg9
I6273
sg10
g11
sg12
g13
sg14
g21
sa(dp23
g3
VCalifornia
p24
sg5
g6
sg7
Vhttp://dbpedia.org/resource/Category:California
p25
sg9
I5971
sg10
g11
sg12
g13
sg14
Vcalifornia
p26
sa(dp27
g3
Vadministrative region
p28
sg5
g6
sg7
Vhttp://dbpedia.org/ontology/AdministrativeRegion
p29
sg9
I13
sg10
g11
sg12
g13
sg14
Vadministrative region
p30
sa(dp31
g3
Vpopulated place
p32
sg5
g6
sg7
Vhttp://dbpedia.org/ontology/PopulatedPlace
p33
sg9
I2
sg10
g11
sg12
g13
sg14
Vpopulated place
p34
sa(dp35
g3
VStates and territories established in 1850
p36
sg5
g6
sg7
Vhttp://dbpedia.org/resource/Category:States_and_territories_established_in_1850
p37
sg9
I0
sg10
g11
sg12
g13
sg14
VStates and territories established in 1850
p38
sa(dp39
g3
VStates of the United States
p40
sg5
g6
sg7
Vhttp://dbpedia.org/resource/Category:States_of_the_United_States
p41
sg9
I0
sg10
g11
sg12
g13
sg14
VStates of the United state
p42
sa(dp43
g3
VStates of the West Coast of the United States
p44
sg5
g6
sg7
Vhttp://dbpedia.org/resource/Category:States_of_the_West_Coast_of_the_United_States
p45
sg9
I0
sg10
g11
sg12
g13
sg14
VStates of the West Coast of the United state
p46
sa(dp47
g3
Nsg5
g6
sg7
Vhttp://dbpedia.org/ontology/Location
p48
sg9
I0
sg10
g11
sg12
g13
sg14
Nsa(dp49
g3
VStates of the United States
p50
sg5
g6
sg7
Vhttp://dbpedia.org/resource/Category:States_of_the_United_States
p51
sg9
I0
sg10
Vhttp://dbpedia.org/resource/Category:California
p52
sg12
g13
sg14
VStates of the United state
p53
sa(dp54
g3
VStates of the West Coast of the United States
p55
sg5
g6
sg7
Vhttp://dbpedia.org/resource/Category:States_of_the_West_Coast_of_the_United_States
p56
sg9
I0
sg10
g52
sg12
g13
sg14
VStates of the West Coast of the United state
p57
sa(dp58
g3
VU%5C.S%5C. state
p59
sg5
g6
sg7
Vhttp://wibitaxonomy.org/U%5C.S%5C._state
p60
sg9
I0
sg10
g18
sg12
g13
sg14
VU%5C.S%5C. state
p61
sa(dp62
g3
VFederated state
p63
sg5
g6
sg7
Vhttp://wibitaxonomy.org/Federated_state
p64
sg9
I0
sg10
g18
sg12
g13
sg14
VFederated state
p65
sa(dp66
g3
VStates of the United States
p67
sg5
g6
sg7
Vhttp://wibitaxonomy.org/Category%3AStates_of_the_United_States
p68
sg9
I0
sg10
Vhttp://wibitaxonomy.org/Category%3ACalifornia
p69
sg12
g13
sg14
VStates of the United state
p70
sa(dp71
g3
VCountry subdivisions of the Americas
p72
sg5
g6
sg7
Vhttp://wibitaxonomy.org/Category%3ACountry_subdivisions_of_the_Americas
p73
sg9
I0
sg10
g69
sg12
g13
sg14
VCountry subdivisions of the america
p74
sa(dp75
g3
VCountry subdivisions by continent
p76
sg5
g6
sg7
Vhttp://wibitaxonomy.org/Category%3ACountry_subdivisions_by_continent
p77
sg9
I0
sg10
g69
sg12
g13
sg14
VCountry subdivisions by continent
p78
sa.