(lp1
(dp2
S'generalizedLabel'
p3
Vplace
p4
sS'term'
p5
VCanary Islands
p6
sS'generalizedURI'
p7
Vhttp://dbpedia.org/ontology/Place
p8
sS'generalizedFreq'
p9
I6273
sS'subjectURI'
p10
Vhttp://dbpedia.org/resource/Canary_Islands
p11
sS'inputType'
p12
VLocation
p13
sS'generalizedLemma'
p14
g4
sa(dp15
g3
Vsettlement
p16
sg5
g6
sg7
Vhttp://dbpedia.org/ontology/Settlement
p17
sg9
I591
sg10
g11
sg12
g13
sg14
g16
sa(dp18
g3
VArchipelago
p19
sg5
g6
sg7
Vhttp://wibitaxonomy.org/Archipelago
p20
sg9
I315
sg10
Vhttp://wibitaxonomy.org/Canary_Islands
p21
sg12
g13
sg14
Varchipelago
p22
sa(dp23
g3
VLandform
p24
sg5
g6
sg7
Vhttp://wibitaxonomy.org/Landform
p25
sg9
I166
sg10
g21
sg12
g13
sg14
Vlandform
p26
sa(dp27
g3
VNorth Africa
p28
sg5
g6
sg7
Vhttp://dbpedia.org/resource/Category:North_Africa
p29
sg9
I116
sg10
g11
sg12
g13
sg14
VNorth africa
p30
sa(dp31
g3
VNorth Africa
p32
sg5
g6
sg7
Vhttp://dbpedia.org/resource/Category:North_Africa
p33
sg9
I116
sg10
Vhttp://dbpedia.org/resource/Category:Canary_Islands
p34
sg12
g13
sg14
VNorth africa
p35
sa(dp36
g3
VVolcanic islands
p37
sg5
g6
sg7
Vhttp://dbpedia.org/resource/Category:Volcanic_islands
p38
sg9
I26
sg10
g34
sg12
g13
sg14
VVolcanic island
p39
sa(dp40
g3
VCanary Islands
p41
sg5
g6
sg7
Vhttp://dbpedia.org/resource/Category:Canary_Islands
p42
sg9
I5
sg10
g11
sg12
g13
sg14
VCanary island
p43
sa(dp44
g3
Vpopulated place
p45
sg5
g6
sg7
Vhttp://dbpedia.org/ontology/PopulatedPlace
p46
sg9
I2
sg10
g11
sg12
g13
sg14
Vpopulated place
p47
sa(dp48
g3
VPhysiographic sections
p49
sg5
g6
sg7
Vhttp://dbpedia.org/resource/Category:Physiographic_sections
p50
sg9
I0
sg10
g11
sg12
g13
sg14
VPhysiographic section
p51
sa(dp52
g3
VIslands of Africa
p53
sg5
g6
sg7
Vhttp://dbpedia.org/resource/Category:Islands_of_Africa
p54
sg9
I0
sg10
g11
sg12
g13
sg14
VIslands of africa
p55
sa(dp56
g3
VNUTS 2 statistical regions of the European Union
p57
sg5
g6
sg7
Vhttp://dbpedia.org/resource/Category:NUTS_2_statistical_regions_of_the_European_Union
p58
sg9
I0
sg10
g11
sg12
g13
sg14
VNUTS 2 statistical regions of the European union
p59
sa(dp60
g3
VAutonomous communities of Spain
p61
sg5
g6
sg7
Vhttp://dbpedia.org/resource/Category:Autonomous_communities_of_Spain
p62
sg9
I0
sg10
g11
sg12
g13
sg14
VAutonomous communities of spain
p63
sa(dp64
g3
VNUTS 1 statistical regions of the European Union
p65
sg5
g6
sg7
Vhttp://dbpedia.org/resource/Category:NUTS_1_statistical_regions_of_the_European_Union
p66
sg9
I0
sg10
g11
sg12
g13
sg14
VNUTS 1 statistical regions of the European union
p67
sa(dp68
g3
VOutermost regions of the European Union
p69
sg5
g6
sg7
Vhttp://dbpedia.org/resource/Category:Outermost_regions_of_the_European_Union
p70
sg9
I0
sg10
g11
sg12
g13
sg14
VOutermost regions of the European union
p71
sa(dp72
g3
VArchipelagoes of Spain
p73
sg5
g6
sg7
Vhttp://dbpedia.org/resource/Category:Archipelagoes_of_Spain
p74
sg9
I0
sg10
g11
sg12
g13
sg14
VArchipelagoes of spain
p75
sa(dp76
g3
Nsg5
g6
sg7
Vhttp://dbpedia.org/ontology/Location
p77
sg9
I0
sg10
g11
sg12
g13
sg14
Nsa(dp78
g3
VArchipelagoes of the Atlantic Ocean
p79
sg5
g6
sg7
Vhttp://dbpedia.org/resource/Category:Archipelagoes_of_the_Atlantic_Ocean
p80
sg9
I0
sg10
g34
sg12
g13
sg14
VArchipelagoes of the Atlantic ocean
p81
sa(dp82
g3
VArchipelagoes of Africa
p83
sg5
g6
sg7
Vhttp://dbpedia.org/resource/Category:Archipelagoes_of_Africa
p84
sg9
I0
sg10
g34
sg12
g13
sg14
VArchipelagoes of africa
p85
sa(dp86
g3
VAutonomous communities of Spain
p87
sg5
g6
sg7
Vhttp://dbpedia.org/resource/Category:Autonomous_communities_of_Spain
p88
sg9
I0
sg10
g34
sg12
g13
sg14
VAutonomous communities of spain
p89
sa(dp90
g3
VIntegral overseas territories
p91
sg5
g6
sg7
Vhttp://dbpedia.org/resource/Category:Integral_overseas_territories
p92
sg9
I0
sg10
g34
sg12
g13
sg14
VIntegral overseas territory
p93
sa(dp94
g3
VIslands of Macaronesia
p95
sg5
g6
sg7
Vhttp://dbpedia.org/resource/Category:Islands_of_Macaronesia
p96
sg9
I0
sg10
g34
sg12
g13
sg14
VIslands of macaronesia
p97
sa(dp98
g3
VNUTS 1 statistical regions of the European Union
p99
sg5
g6
sg7
Vhttp://dbpedia.org/resource/Category:NUTS_1_statistical_regions_of_the_European_Union
p100
sg9
I0
sg10
g34
sg12
g13
sg14
VNUTS 1 statistical regions of the European union
p101
sa(dp102
g3
VOutermost regions of the European Union
p103
sg5
g6
sg7
Vhttp://dbpedia.org/resource/Category:Outermost_regions_of_the_European_Union
p104
sg9
I0
sg10
g34
sg12
g13
sg14
VOutermost regions of the European union
p105
sa(dp106
g3
VSpanish Africa
p107
sg5
g6
sg7
Vhttp://dbpedia.org/resource/Category:Spanish_Africa
p108
sg9
I0
sg10
g34
sg12
g13
sg14
VSpanish africa
p109
sa(dp110
g3
VWikipedia categories named after islands
p111
sg5
g6
sg7
Vhttp://dbpedia.org/resource/Category:Wikipedia_categories_named_after_islands
p112
sg9
I0
sg10
g34
sg12
g13
sg14
VWikipedia categories named after island
p113
sa(dp114
g3
VArchipelagoes of Spain
p115
sg5
g6
sg7
Vhttp://dbpedia.org/resource/Category:Archipelagoes_of_Spain
p116
sg9
I0
sg10
g34
sg12
g13
sg14
VArchipelagoes of spain
p117
sa(dp118
g3
VElement %5C%28mathematics%5C%29
p119
sg5
g6
sg7
Vhttp://wibitaxonomy.org/Element_%5C%28mathematics%5C%29
p120
sg9
I0
sg10
g21
sg12
g13
sg14
VElement %5c%28mathematics%5c%29
p121
sa(dp122
g3
VCluster %5C%28band%5C%29
p123
sg5
g6
sg7
Vhttp://wibitaxonomy.org/Cluster_%5C%28band%5C%29
p124
sg9
I0
sg10
g21
sg12
g13
sg14
VCluster %5c%28band%5c%29
p125
sa(dp126
g3
VMusical ensemble
p127
sg5
g6
sg7
Vhttp://wibitaxonomy.org/Musical_ensemble
p128
sg9
I0
sg10
g21
sg12
g13
sg14
VMusical ensemble
p129
sa(dp130
g3
VAutonomous communities of Spain
p131
sg5
g6
sg7
Vhttp://wibitaxonomy.org/Category%3AAutonomous_communities_of_Spain
p132
sg9
I0
sg10
Vhttp://wibitaxonomy.org/Category%3ACanary_Islands
p133
sg12
g13
sg14
VAutonomous communities of spain
p134
sa(dp135
g3
VCountry subdivisions of Europe
p136
sg5
g6
sg7
Vhttp://wibitaxonomy.org/Category%3ACountry_subdivisions_of_Europe
p137
sg9
I0
sg10
g133
sg12
g13
sg14
VCountry subdivisions of europe
p138
sa(dp139
g3
VCountry subdivisions by continent
p140
sg5
g6
sg7
Vhttp://wibitaxonomy.org/Category%3ACountry_subdivisions_by_continent
p141
sg9
I0
sg10
g133
sg12
g13
sg14
VCountry subdivisions by continent
p142
sa.