(lp1
(dp2
S'generalizedLabel'
p3
Vplace
p4
sS'term'
p5
VCanada
p6
sS'generalizedURI'
p7
Vhttp://dbpedia.org/ontology/Place
p8
sS'generalizedFreq'
p9
I6273
sS'subjectURI'
p10
Vhttp://dbpedia.org/resource/Canada
p11
sS'inputType'
p12
VLocation
p13
sS'generalizedLemma'
p14
g4
sa(dp15
g3
Vcountry
p16
sg5
g6
sg7
Vhttp://dbpedia.org/ontology/Country
p17
sg9
I5355
sg10
g11
sg12
g13
sg14
g16
sa(dp18
g3
VCountry
p19
sg5
g6
sg7
Vhttp://wibitaxonomy.org/Country
p20
sg9
I5355
sg10
Vhttp://wibitaxonomy.org/Canada
p21
sg12
g13
sg14
Vcountry
p22
sa(dp23
g3
VCountries
p24
sg5
g6
sg7
Vhttp://wibitaxonomy.org/Category%3ACountries
p25
sg9
I5355
sg10
Vhttp://wibitaxonomy.org/Category%3ACanada
p26
sg12
g13
sg14
Vcountry
p27
sa(dp28
g3
VCanada
p29
sg5
g6
sg7
Vhttp://dbpedia.org/resource/Category:Canada
p30
sg9
I2999
sg10
g11
sg12
g13
sg14
Vcanada
p31
sa(dp32
g3
VG8 nations
p33
sg5
g6
sg7
Vhttp://dbpedia.org/resource/Category:G8_nations
p34
sg9
I7
sg10
g11
sg12
g13
sg14
VG8 nation
p35
sa(dp36
g3
Vpopulated place
p37
sg5
g6
sg7
Vhttp://dbpedia.org/ontology/PopulatedPlace
p38
sg9
I2
sg10
g11
sg12
g13
sg14
Vpopulated place
p39
sa(dp40
g3
VFormer British colonies
p41
sg5
g6
sg7
Vhttp://dbpedia.org/resource/Category:Former_British_colonies
p42
sg9
I1
sg10
g11
sg12
g13
sg14
VFormer British colony
p43
sa(dp44
g3
VLiberal democracies
p45
sg5
g6
sg7
Vhttp://dbpedia.org/resource/Category:Liberal_democracies
p46
sg9
I1
sg10
g11
sg12
g13
sg14
VLiberal democracy
p47
sa(dp48
g3
VG20 nations
p49
sg5
g6
sg7
Vhttp://dbpedia.org/resource/Category:G20_nations
p50
sg9
I1
sg10
g11
sg12
g13
sg14
VG20 nation
p51
sa(dp52
g3
VCountries in North America
p53
sg5
g6
sg7
Vhttp://dbpedia.org/resource/Category:Countries_in_North_America
p54
sg9
I1
sg10
Vhttp://dbpedia.org/resource/Category:Canada
p55
sg12
g13
sg14
VCountries in North america
p56
sa(dp57
g3
VFederal countries
p58
sg5
g6
sg7
Vhttp://dbpedia.org/resource/Category:Federal_countries
p59
sg9
I0
sg10
g11
sg12
g13
sg14
VFederal country
p60
sa(dp61
g3
VEnglish-speaking countries and territories
p62
sg5
g6
sg7
Vhttp://dbpedia.org/resource/Category:English-speaking_countries_and_territories
p63
sg9
I0
sg10
g11
sg12
g13
sg14
VEnglish-speaking countries and territory
p64
sa(dp65
g3
VMember states of the United Nations
p66
sg5
g6
sg7
Vhttp://dbpedia.org/resource/Category:Member_states_of_the_United_Nations
p67
sg9
I0
sg10
g11
sg12
g13
sg14
VMember states of the United nation
p68
sa(dp69
g3
VFormer French colonies
p70
sg5
g6
sg7
Vhttp://dbpedia.org/resource/Category:Former_French_colonies
p71
sg9
I0
sg10
g11
sg12
g13
sg14
VFormer French colony
p72
sa(dp73
g3
VMember states of the Commonwealth of Nations
p74
sg5
g6
sg7
Vhttp://dbpedia.org/resource/Category:Member_states_of_the_Commonwealth_of_Nations
p75
sg9
I0
sg10
g11
sg12
g13
sg14
VMember states of the Commonwealth of nation
p76
sa(dp77
g3
VConstitutional monarchies
p78
sg5
g6
sg7
Vhttp://dbpedia.org/resource/Category:Constitutional_monarchies
p79
sg9
I0
sg10
g11
sg12
g13
sg14
VConstitutional monarchy
p80
sa(dp81
g3
VFrench-speaking countries and territories
p82
sg5
g6
sg7
Vhttp://dbpedia.org/resource/Category:French-speaking_countries_and_territories
p83
sg9
I0
sg10
g11
sg12
g13
sg14
VFrench-speaking countries and territory
p84
sa(dp85
g3
VG7 nations
p86
sg5
g6
sg7
Vhttp://dbpedia.org/resource/Category:G7_nations
p87
sg9
I0
sg10
g11
sg12
g13
sg14
VG7 nation
p88
sa(dp89
g3
VMember states of La Francophonie
p90
sg5
g6
sg7
Vhttp://dbpedia.org/resource/Category:Member_states_of_La_Francophonie
p91
sg9
I0
sg10
g11
sg12
g13
sg14
VMember states of La francophonie
p92
sa(dp93
g3
VMember states of NATO
p94
sg5
g6
sg7
Vhttp://dbpedia.org/resource/Category:Member_states_of_NATO
p95
sg9
I0
sg10
g11
sg12
g13
sg14
VMember states of nato
p96
sa(dp97
g3
VStates and territories established in 1867
p98
sg5
g6
sg7
Vhttp://dbpedia.org/resource/Category:States_and_territories_established_in_1867
p99
sg9
I0
sg10
g11
sg12
g13
sg14
VStates and territories established in 1867
p100
sa(dp101
g3
V1867 establishments in Canada
p102
sg5
g6
sg7
Vhttp://dbpedia.org/resource/Category:1867_establishments_in_Canada
p103
sg9
I0
sg10
g11
sg12
g13
sg14
V1867 establishments in canada
p104
sa(dp105
g3
Nsg5
g6
sg7
Vhttp://dbpedia.org/ontology/Location
p106
sg9
I0
sg10
g11
sg12
g13
sg14
Nsa(dp107
g3
VEnglish-speaking countries and territories
p108
sg5
g6
sg7
Vhttp://dbpedia.org/resource/Category:English-speaking_countries_and_territories
p109
sg9
I0
sg10
g55
sg12
g13
sg14
VEnglish-speaking countries and territory
p110
sa(dp111
g3
VWikipedia categories named after countries
p112
sg5
g6
sg7
Vhttp://dbpedia.org/resource/Category:Wikipedia_categories_named_after_countries
p113
sg9
I0
sg10
g55
sg12
g13
sg14
VWikipedia categories named after country
p114
sa(dp115
g3
VMember states of the Commonwealth of Nations
p116
sg5
g6
sg7
Vhttp://dbpedia.org/resource/Category:Member_states_of_the_Commonwealth_of_Nations
p117
sg9
I0
sg10
g55
sg12
g13
sg14
VMember states of the Commonwealth of nation
p118
sa(dp119
g3
VConstitutional monarchies
p120
sg5
g6
sg7
Vhttp://dbpedia.org/resource/Category:Constitutional_monarchies
p121
sg9
I0
sg10
g55
sg12
g13
sg14
VConstitutional monarchy
p122
sa(dp123
g3
VFrench-speaking countries and territories
p124
sg5
g6
sg7
Vhttp://dbpedia.org/resource/Category:French-speaking_countries_and_territories
p125
sg9
I0
sg10
g55
sg12
g13
sg14
VFrench-speaking countries and territory
p126
sa(dp127
g3
VMember states of La Francophonie
p128
sg5
g6
sg7
Vhttp://dbpedia.org/resource/Category:Member_states_of_La_Francophonie
p129
sg9
I0
sg10
g55
sg12
g13
sg14
VMember states of La francophonie
p130
sa(dp131
g3
VStates and territories established in 1867
p132
sg5
g6
sg7
Vhttp://dbpedia.org/resource/Category:States_and_territories_established_in_1867
p133
sg9
I0
sg10
g55
sg12
g13
sg14
VStates and territories established in 1867
p134
sa(dp135
g3
VPolitical geography
p136
sg5
g6
sg7
Vhttp://wibitaxonomy.org/Political_geography
p137
sg9
I0
sg10
g21
sg12
g13
sg14
VPolitical geography
p138
sa(dp139
g3
VField %5C%28mathematics%5C%29
p140
sg5
g6
sg7
Vhttp://wibitaxonomy.org/Field_%5C%28mathematics%5C%29
p141
sg9
I0
sg10
g21
sg12
g13
sg14
VField %5c%28mathematics%5c%29
p142
sa(dp143
g3
VFederal countries
p144
sg5
g6
sg7
Vhttp://wibitaxonomy.org/Category%3AFederal_countries
p145
sg9
I0
sg10
g26
sg12
g13
sg14
VFederal country
p146
sa(dp147
g3
VPolitical geography
p148
sg5
g6
sg7
Vhttp://wibitaxonomy.org/Category%3APolitical_geography
p149
sg9
I0
sg10
g26
sg12
g13
sg14
VPolitical geography
p150
sa.