(lp1
(dp2
S'generalizedLabel'
p3
VCarbon
p4
sS'term'
p5
Vcarbon
p6
sS'generalizedURI'
p7
Vhttp://dbpedia.org/resource/Category:Carbon
p8
sS'generalizedFreq'
p9
I44270
sS'subjectURI'
p10
Vhttp://dbpedia.org/resource/Carbon
p11
sS'inputType'
p12
VCompound
p13
sS'generalizedLemma'
p14
Vcarbon
p15
sa(dp16
g3
VMatter
p17
sg5
g6
sg7
Vhttp://wibitaxonomy.org/Matter
p18
sg9
I7091
sg10
Vhttp://wibitaxonomy.org/Carbon
p19
sg12
g13
sg14
Vmatter
p20
sa(dp21
g3
VChemistry
p22
sg5
g6
sg7
Vhttp://wibitaxonomy.org/Category%3AChemistry
p23
sg9
I4471
sg10
Vhttp://wibitaxonomy.org/Category%3ACarbon
p24
sg12
g13
sg14
Vchemistry
p25
sa(dp26
g3
VCarbonate minerals
p27
sg5
g6
sg7
Vhttp://dbpedia.org/resource/Category:Carbonate_minerals
p28
sg9
I143
sg10
g11
sg12
g13
sg14
VCarbonate mineral
p29
sa(dp30
g3
VReducing agents
p31
sg5
g6
sg7
Vhttp://dbpedia.org/resource/Category:Reducing_agents
p32
sg9
I55
sg10
g11
sg12
g13
sg14
VReducing agent
p33
sa(dp34
g3
VChemical elements
p35
sg5
g6
sg7
Vhttp://dbpedia.org/resource/Category:Chemical_elements
p36
sg9
I29
sg10
g11
sg12
g13
sg14
VChemical element
p37
sa(dp38
g3
VChemical elements
p39
sg5
g6
sg7
Vhttp://dbpedia.org/resource/Category:Chemical_elements
p40
sg9
I29
sg10
Vhttp://dbpedia.org/resource/Category:Carbon
p41
sg12
g13
sg14
VChemical element
p42
sa(dp43
g3
VChemical element
p44
sg5
g6
sg7
Vhttp://wibitaxonomy.org/Chemical_element
p45
sg9
I29
sg10
g19
sg12
g13
sg14
VChemical element
p46
sa(dp47
g3
VChemical elements
p48
sg5
g6
sg7
Vhttp://wibitaxonomy.org/Category%3AChemical_elements
p49
sg9
I29
sg10
g24
sg12
g13
sg14
VChemical element
p50
sa(dp51
g3
VCarbon forms
p52
sg5
g6
sg7
Vhttp://dbpedia.org/resource/Category:Carbon_forms
p53
sg9
I11
sg10
g11
sg12
g13
sg14
VCarbon form
p54
sa(dp55
g3
VChemical substance
p56
sg5
g6
sg7
Vhttp://wibitaxonomy.org/Chemical_substance
p57
sg9
I6
sg10
g19
sg12
g13
sg14
VChemical substance
p58
sa(dp59
g3
VChemical substances
p60
sg5
g6
sg7
Vhttp://wibitaxonomy.org/Category%3AChemical_substances
p61
sg9
I6
sg10
g24
sg12
g13
sg14
VChemical substance
p62
sa(dp63
g3
VBiology and pharmacology of chemical elements
p64
sg5
g6
sg7
Vhttp://dbpedia.org/resource/Category:Biology_and_pharmacology_of_chemical_elements
p65
sg9
I0
sg10
g11
sg12
g13
sg14
VBiology and pharmacology of chemical element
p66
sa(dp67
g3
VOrganic minerals
p68
sg5
g6
sg7
Vhttp://dbpedia.org/resource/Category:Organic_minerals
p69
sg9
I0
sg10
g11
sg12
g13
sg14
VOrganic mineral
p70
sa(dp71
g3
VPolyatomic nonmetals
p72
sg5
g6
sg7
Vhttp://dbpedia.org/resource/Category:Polyatomic_nonmetals
p73
sg9
I0
sg10
g11
sg12
g13
sg14
VPolyatomic nonmetal
p74
sa(dp75
g3
VPolyatomic nonmetals
p76
sg5
g6
sg7
Vhttp://dbpedia.org/resource/Category:Polyatomic_nonmetals
p77
sg9
I0
sg10
g41
sg12
g13
sg14
VPolyatomic nonmetal
p78
sa(dp79
g3
VWikipedia categories named after chemical elements
p80
sg5
g6
sg7
Vhttp://dbpedia.org/resource/Category:Wikipedia_categories_named_after_chemical_elements
p81
sg9
I0
sg10
g41
sg12
g13
sg14
VWikipedia categories named after chemical element
p82
sa.