(lp1
(dp2
S'generalizedLabel'
p3
VNutrients
p4
sS'term'
p5
Vcarbohydrates
p6
sS'generalizedURI'
p7
Vhttp://dbpedia.org/resource/Category:Nutrients
p8
sS'generalizedFreq'
p9
I12800
sS'subjectURI'
p10
Vhttp://dbpedia.org/resource/Category:Carbohydrates
p11
sS'inputType'
p12
VCompound
p13
sS'generalizedLemma'
p14
Vnutrient
p15
sa(dp16
g3
VOrganic compounds
p17
sg5
g6
sg7
Vhttp://dbpedia.org/resource/Category:Organic_compounds
p18
sg9
I774
sg10
g11
sg12
g13
sg14
VOrganic compound
p19
sa(dp20
g3
VMacromolecules
p21
sg5
g6
sg7
Vhttp://dbpedia.org/resource/Category:Macromolecules
p22
sg9
I256
sg10
g11
sg12
g13
sg14
Vmacromolecule
p23
sa(dp24
g3
VRenewable fuels
p25
sg5
g6
sg7
Vhttp://dbpedia.org/resource/Category:Renewable_fuels
p26
sg9
I34
sg10
g11
sg12
g13
sg14
VRenewable fuel
p27
sa(dp28
g3
VCarbohydrate chemistry
p29
sg5
g6
sg7
Vhttp://dbpedia.org/resource/Category:Carbohydrate_chemistry
p30
sg9
I3
sg10
g11
sg12
g13
sg14
VCarbohydrate chemistry
p31
sa(dp32
g3
VBiomolecules by chemical classification
p33
sg5
g6
sg7
Vhttp://dbpedia.org/resource/Category:Biomolecules_by_chemical_classification
p34
sg9
I0
sg10
g11
sg12
g13
sg14
VBiomolecules by chemical classification
p35
sa.