(lp1
(dp2
S'generalizedLabel'
p3
VClimate change
p4
sS'term'
p5
Vcarbon dioxide
p6
sS'generalizedURI'
p7
Vhttp://dbpedia.org/resource/Category:Climate_change
p8
sS'generalizedFreq'
p9
I25268
sS'subjectURI'
p10
Vhttp://dbpedia.org/resource/Category:Carbon_dioxide
p11
sS'inputType'
p12
VCompound
p13
sS'generalizedLemma'
p14
VClimate change
p15
sa(dp16
g3
VAtmosphere
p17
sg5
g6
sg7
Vhttp://wibitaxonomy.org/Category%3AAtmosphere
p18
sg9
I8110
sg10
Vhttp://wibitaxonomy.org/Category%3ACarbon_dioxide
p19
sg12
g13
sg14
Vatmosphere
p20
sa(dp21
g3
VMatter
p22
sg5
g6
sg7
Vhttp://wibitaxonomy.org/Matter
p23
sg9
I7091
sg10
Vhttp://wibitaxonomy.org/Carbon_dioxide
p24
sg12
g13
sg14
Vmatter
p25
sa(dp26
g3
VCarbon dioxide
p27
sg5
g6
sg7
Vhttp://dbpedia.org/resource/Category:Carbon_dioxide
p28
sg9
I5944
sg10
Vhttp://dbpedia.org/resource/Carbon_dioxide
p29
sg12
g13
sg14
VCarbon dioxide
p30
sa(dp31
g3
VGreenhouse gases
p32
sg5
g6
sg7
Vhttp://dbpedia.org/resource/Category:Greenhouse_gases
p33
sg9
I3732
sg10
g11
sg12
g13
sg14
VGreenhouse gas
p34
sa(dp35
g3
VGreenhouse gases
p36
sg5
g6
sg7
Vhttp://dbpedia.org/resource/Category:Greenhouse_gases
p37
sg9
I3732
sg10
g29
sg12
g13
sg14
VGreenhouse gas
p38
sa(dp39
g3
VGreenhouse gases
p40
sg5
g6
sg7
Vhttp://wibitaxonomy.org/Category%3AGreenhouse_gases
p41
sg9
I3732
sg10
g19
sg12
g13
sg14
VGreenhouse gas
p42
sa(dp43
g3
VOxides
p44
sg5
g6
sg7
Vhttp://dbpedia.org/resource/Category:Oxides
p45
sg9
I3546
sg10
g11
sg12
g13
sg14
Voxide
p46
sa(dp47
g3
VAir pollution
p48
sg5
g6
sg7
Vhttp://wibitaxonomy.org/Category%3AAir_pollution
p49
sg9
I485
sg10
g19
sg12
g13
sg14
VAir pollution
p50
sa(dp51
g3
Vchemical compound
p52
sg5
g6
sg7
Vhttp://dbpedia.org/ontology/ChemicalCompound
p53
sg9
I76
sg10
g29
sg12
g13
sg14
Vchemical compound
p54
sa(dp55
g3
VChemical compound
p56
sg5
g6
sg7
Vhttp://wibitaxonomy.org/Chemical_compound
p57
sg9
I76
sg10
g24
sg12
g13
sg14
VChemical compound
p58
sa(dp59
g3
VRefrigerants
p60
sg5
g6
sg7
Vhttp://dbpedia.org/resource/Category:Refrigerants
p61
sg9
I37
sg10
g29
sg12
g13
sg14
Vrefrigerant
p62
sa(dp63
g3
VCoolants
p64
sg5
g6
sg7
Vhttp://dbpedia.org/resource/Category:Coolants
p65
sg9
I16
sg10
g29
sg12
g13
sg14
Vcoolant
p66
sa(dp67
g3
VPropellants
p68
sg5
g6
sg7
Vhttp://dbpedia.org/resource/Category:Propellants
p69
sg9
I11
sg10
g29
sg12
g13
sg14
Vpropellant
p70
sa(dp71
g3
Vchemical substance
p72
sg5
g6
sg7
Vhttp://dbpedia.org/ontology/ChemicalSubstance
p73
sg9
I6
sg10
g29
sg12
g13
sg14
Vchemical substance
p74
sa(dp75
g3
VChemical substance
p76
sg5
g6
sg7
Vhttp://wibitaxonomy.org/Chemical_substance
p77
sg9
I6
sg10
g24
sg12
g13
sg14
VChemical substance
p78
sa(dp79
g3
VInorganic carbon compounds
p80
sg5
g6
sg7
Vhttp://dbpedia.org/resource/Category:Inorganic_carbon_compounds
p81
sg9
I2
sg10
g11
sg12
g13
sg14
VInorganic carbon compound
p82
sa(dp83
g3
VHousehold chemicals
p84
sg5
g6
sg7
Vhttp://dbpedia.org/resource/Category:Household_chemicals
p85
sg9
I2
sg10
g29
sg12
g13
sg14
VHousehold chemical
p86
sa(dp87
g3
VFire suppression agents
p88
sg5
g6
sg7
Vhttp://dbpedia.org/resource/Category:Fire_suppression_agents
p89
sg9
I0
sg10
g29
sg12
g13
sg14
VFire suppression agent
p90
sa(dp91
g3
VAcidic oxides
p92
sg5
g6
sg7
Vhttp://dbpedia.org/resource/Category:Acidic_oxides
p93
sg9
I0
sg10
g29
sg12
g13
sg14
VAcidic oxide
p94
sa(dp95
g3
VLaser gain media
p96
sg5
g6
sg7
Vhttp://dbpedia.org/resource/Category:Laser_gain_media
p97
sg9
I0
sg10
g29
sg12
g13
sg14
VLaser gain medium
p98
sa(dp99
g3
VNuclear reactor coolants
p100
sg5
g6
sg7
Vhttp://dbpedia.org/resource/Category:Nuclear_reactor_coolants
p101
sg9
I0
sg10
g29
sg12
g13
sg14
VNuclear reactor coolant
p102
sa(dp103
g3
VInorganic solvents
p104
sg5
g6
sg7
Vhttp://dbpedia.org/resource/Category:Inorganic_solvents
p105
sg9
I0
sg10
g29
sg12
g13
sg14
VInorganic solvent
p106
sa(dp107
g3
VAcid anhydrides
p108
sg5
g6
sg7
Vhttp://dbpedia.org/resource/Category:Acid_anhydrides
p109
sg9
I0
sg10
g29
sg12
g13
sg14
VAcid anhydride
p110
sa(dp111
g3
VOxocarbons
p112
sg5
g6
sg7
Vhttp://dbpedia.org/resource/Category:Oxocarbons
p113
sg9
I0
sg10
g29
sg12
g13
sg14
Voxocarbons
p114
sa(dp115
g3
VGaseous signaling molecules
p116
sg5
g6
sg7
Vhttp://dbpedia.org/resource/Category:Gaseous_signaling_molecules
p117
sg9
I0
sg10
g29
sg12
g13
sg14
VGaseous signaling molecule
p118
sa.