(lp1
(dp2
S'generalizedLabel'
p3
VFunctional groups
p4
sS'term'
p5
VCarboxylic acids
p6
sS'generalizedURI'
p7
Vhttp://dbpedia.org/resource/Category:Functional_groups
p8
sS'generalizedFreq'
p9
I895
sS'subjectURI'
p10
Vhttp://dbpedia.org/resource/Category:Carboxylic_acids
p11
sS'inputType'
p12
VCompound
p13
sS'generalizedLemma'
p14
VFunctional group
p15
sa(dp16
g3
VOrganic compounds
p17
sg5
g6
sg7
Vhttp://dbpedia.org/resource/Category:Organic_compounds
p18
sg9
I774
sg10
g11
sg12
g13
sg14
VOrganic compound
p19
sa(dp20
g3
VOrganic compounds
p21
sg5
g6
sg7
Vhttp://wibitaxonomy.org/Category%3AOrganic_compounds
p22
sg9
I774
sg10
Vhttp://wibitaxonomy.org/Category%3ACarboxylic_acids
p23
sg12
g13
sg14
VOrganic compound
p24
sa(dp25
g3
VOrganic acids
p26
sg5
g6
sg7
Vhttp://dbpedia.org/resource/Category:Organic_acids
p27
sg9
I317
sg10
g11
sg12
g13
sg14
VOrganic acid
p28
sa(dp29
g3
VOrganic acids
p30
sg5
g6
sg7
Vhttp://wibitaxonomy.org/Category%3AOrganic_acids
p31
sg9
I317
sg10
g23
sg12
g13
sg14
VOrganic acid
p32
sa(dp33
g3
VOrganic chemistry
p34
sg5
g6
sg7
Vhttp://wibitaxonomy.org/Category%3AOrganic_chemistry
p35
sg9
I62
sg10
g23
sg12
g13
sg14
VOrganic chemistry
p36
sa(dp37
g3
VOxygen compounds
p38
sg5
g6
sg7
Vhttp://dbpedia.org/resource/Category:Oxygen_compounds
p39
sg9
I0
sg10
g11
sg12
g13
sg14
VOxygen compound
p40
sa.