(lp1
(dp2
S'generalizedLabel'
p3
VGas
p4
sS'term'
p5
Vcarbon monoxide
p6
sS'generalizedURI'
p7
Vhttp://wibitaxonomy.org/Gas
p8
sS'generalizedFreq'
p9
I15140
sS'subjectURI'
p10
Vhttp://wibitaxonomy.org/Carbon_monoxide
p11
sS'inputType'
p12
VCompound
p13
sS'generalizedLemma'
p14
Vgas
p15
sa(dp16
g3
VCarbon monoxide
p17
sg5
g6
sg7
Vhttp://dbpedia.org/resource/Category:Carbon_monoxide
p18
sg9
I425
sg10
Vhttp://dbpedia.org/resource/Carbon_monoxide
p19
sg12
g13
sg14
VCarbon monoxide
p20
sa(dp21
g3
VToxicology
p22
sg5
g6
sg7
Vhttp://dbpedia.org/resource/Category:Toxicology
p23
sg9
I110
sg10
g19
sg12
g13
sg14
Vtoxicology
p24
sa(dp25
g3
VSmog
p26
sg5
g6
sg7
Vhttp://dbpedia.org/resource/Category:Smog
p27
sg9
I95
sg10
g19
sg12
g13
sg14
Vsmog
p28
sa(dp29
g3
Vchemical compound
p30
sg5
g6
sg7
Vhttp://dbpedia.org/ontology/ChemicalCompound
p31
sg9
I76
sg10
g19
sg12
g13
sg14
Vchemical compound
p32
sa(dp33
g3
VColorless
p34
sg5
g6
sg7
Vhttp://wibitaxonomy.org/Colorless
p35
sg9
I55
sg10
g11
sg12
g13
sg14
Vcolorless
p36
sa(dp37
g3
VIndustrial gases
p38
sg5
g6
sg7
Vhttp://dbpedia.org/resource/Category:Industrial_gases
p39
sg9
I10
sg10
g19
sg12
g13
sg14
VIndustrial gas
p40
sa(dp41
g3
Vchemical substance
p42
sg5
g6
sg7
Vhttp://dbpedia.org/ontology/ChemicalSubstance
p43
sg9
I6
sg10
g19
sg12
g13
sg14
Vchemical substance
p44
sa(dp45
g3
VOdorless
p46
sg5
g6
sg7
Vhttp://wibitaxonomy.org/Odorless
p47
sg9
I2
sg10
g11
sg12
g13
sg14
Vodorless
p48
sa(dp49
g3
VClassical mechanics
p50
sg5
g6
sg7
Vhttp://wibitaxonomy.org/Classical_mechanics
p51
sg9
I1
sg10
g11
sg12
g13
sg14
VClassical mechanic
p52
sa(dp53
g3
VArticles containing video clips
p54
sg5
g6
sg7
Vhttp://dbpedia.org/resource/Category:Articles_containing_video_clips
p55
sg9
I0
sg10
g19
sg12
g13
sg14
VArticles containing video clip
p56
sa(dp57
g3
VHazardous air pollutants
p58
sg5
g6
sg7
Vhttp://dbpedia.org/resource/Category:Hazardous_air_pollutants
p59
sg9
I0
sg10
g19
sg12
g13
sg14
VHazardous air pollutant
p60
sa(dp61
g3
VOxocarbons
p62
sg5
g6
sg7
Vhttp://dbpedia.org/resource/Category:Oxocarbons
p63
sg9
I0
sg10
g19
sg12
g13
sg14
Voxocarbons
p64
sa(dp65
g3
VGaseous signaling molecules
p66
sg5
g6
sg7
Vhttp://dbpedia.org/resource/Category:Gaseous_signaling_molecules
p67
sg9
I0
sg10
g19
sg12
g13
sg14
VGaseous signaling molecule
p68
sa.