(lp1
(dp2
S'generalizedLabel'
p3
Vplace
p4
sS'term'
p5
VChile
p6
sS'generalizedURI'
p7
Vhttp://dbpedia.org/ontology/Place
p8
sS'generalizedFreq'
p9
I6273
sS'subjectURI'
p10
Vhttp://dbpedia.org/resource/Chile
p11
sS'inputType'
p12
VLocation
p13
sS'generalizedLemma'
p14
g4
sa(dp15
g3
Vcountry
p16
sg5
g6
sg7
Vhttp://dbpedia.org/ontology/Country
p17
sg9
I5355
sg10
g11
sg12
g13
sg14
g16
sa(dp18
g3
VCountry
p19
sg5
g6
sg7
Vhttp://wibitaxonomy.org/Country
p20
sg9
I5355
sg10
Vhttp://wibitaxonomy.org/Chile
p21
sg12
g13
sg14
Vcountry
p22
sa(dp23
g3
VChile
p24
sg5
g6
sg7
Vhttp://dbpedia.org/resource/Category:Chile
p25
sg9
I418
sg10
g11
sg12
g13
sg14
Vchile
p26
sa(dp27
g3
VRepublics
p28
sg5
g6
sg7
Vhttp://dbpedia.org/resource/Category:Republics
p29
sg9
I409
sg10
g11
sg12
g13
sg14
Vrepublic
p30
sa(dp31
g3
Vpopulated place
p32
sg5
g6
sg7
Vhttp://dbpedia.org/ontology/PopulatedPlace
p33
sg9
I2
sg10
g11
sg12
g13
sg14
Vpopulated place
p34
sa(dp35
g3
VCountries in South America
p36
sg5
g6
sg7
Vhttp://dbpedia.org/resource/Category:Countries_in_South_America
p37
sg9
I1
sg10
g11
sg12
g13
sg14
VCountries in South america
p38
sa(dp39
g3
VLiberal democracies
p40
sg5
g6
sg7
Vhttp://dbpedia.org/resource/Category:Liberal_democracies
p41
sg9
I1
sg10
g11
sg12
g13
sg14
VLiberal democracy
p42
sa(dp43
g3
VCountries in South America
p44
sg5
g6
sg7
Vhttp://dbpedia.org/resource/Category:Countries_in_South_America
p45
sg9
I1
sg10
Vhttp://dbpedia.org/resource/Category:Chile
p46
sg12
g13
sg14
VCountries in South america
p47
sa(dp48
g3
VSpanish-speaking countries and territories
p49
sg5
g6
sg7
Vhttp://dbpedia.org/resource/Category:Spanish-speaking_countries_and_territories
p50
sg9
I0
sg10
g11
sg12
g13
sg14
VSpanish-speaking countries and territory
p51
sa(dp52
g3
V1818 establishments in South America
p53
sg5
g6
sg7
Vhttp://dbpedia.org/resource/Category:1818_establishments_in_South_America
p54
sg9
I0
sg10
g11
sg12
g13
sg14
V1818 establishments in South america
p55
sa(dp56
g3
VFormer Spanish colonies
p57
sg5
g6
sg7
Vhttp://dbpedia.org/resource/Category:Former_Spanish_colonies
p58
sg9
I0
sg10
g11
sg12
g13
sg14
VFormer Spanish colony
p59
sa(dp60
g3
VMember states of the Union of South American Nations
p61
sg5
g6
sg7
Vhttp://dbpedia.org/resource/Category:Member_states_of_the_Union_of_South_American_Nations
p62
sg9
I0
sg10
g11
sg12
g13
sg14
VMember states of the Union of South American nation
p63
sa(dp64
g3
VMember states of the United Nations
p65
sg5
g6
sg7
Vhttp://dbpedia.org/resource/Category:Member_states_of_the_United_Nations
p66
sg9
I0
sg10
g11
sg12
g13
sg14
VMember states of the United nation
p67
sa(dp68
g3
VG15 nations
p69
sg5
g6
sg7
Vhttp://dbpedia.org/resource/Category:G15_nations
p70
sg9
I0
sg10
g11
sg12
g13
sg14
VG15 nation
p71
sa(dp72
g3
VStates and territories established in 1818
p73
sg5
g6
sg7
Vhttp://dbpedia.org/resource/Category:States_and_territories_established_in_1818
p74
sg9
I0
sg10
g11
sg12
g13
sg14
VStates and territories established in 1818
p75
sa(dp76
g3
Nsg5
g6
sg7
Vhttp://dbpedia.org/ontology/Location
p77
sg9
I0
sg10
g11
sg12
g13
sg14
Nsa(dp78
g3
VSpanish-speaking countries and territories
p79
sg5
g6
sg7
Vhttp://dbpedia.org/resource/Category:Spanish-speaking_countries_and_territories
p80
sg9
I0
sg10
g46
sg12
g13
sg14
VSpanish-speaking countries and territory
p81
sa(dp82
g3
V1818 establishments in South America
p83
sg5
g6
sg7
Vhttp://dbpedia.org/resource/Category:1818_establishments_in_South_America
p84
sg9
I0
sg10
g46
sg12
g13
sg14
V1818 establishments in South america
p85
sa(dp86
g3
VWikipedia categories named after countries
p87
sg5
g6
sg7
Vhttp://dbpedia.org/resource/Category:Wikipedia_categories_named_after_countries
p88
sg9
I0
sg10
g46
sg12
g13
sg14
VWikipedia categories named after country
p89
sa(dp90
g3
VStates and territories established in 1818
p91
sg5
g6
sg7
Vhttp://dbpedia.org/resource/Category:States_and_territories_established_in_1818
p92
sg9
I0
sg10
g46
sg12
g13
sg14
VStates and territories established in 1818
p93
sa(dp94
g3
VPolitical geography
p95
sg5
g6
sg7
Vhttp://wibitaxonomy.org/Political_geography
p96
sg9
I0
sg10
g21
sg12
g13
sg14
VPolitical geography
p97
sa(dp98
g3
VField %5C%28mathematics%5C%29
p99
sg5
g6
sg7
Vhttp://wibitaxonomy.org/Field_%5C%28mathematics%5C%29
p100
sg9
I0
sg10
g21
sg12
g13
sg14
VField %5c%28mathematics%5c%29
p101
sa(dp102
g3
VSpanish%5C-speaking countries
p103
sg5
g6
sg7
Vhttp://wibitaxonomy.org/Category%3ASpanish%5C-speaking_countries
p104
sg9
I0
sg10
Vhttp://wibitaxonomy.org/Category%3AChile
p105
sg12
g13
sg14
VSpanish%5C-speaking country
p106
sa(dp107
g3
VSpanish language
p108
sg5
g6
sg7
Vhttp://wibitaxonomy.org/Category%3ASpanish_language
p109
sg9
I0
sg10
g105
sg12
g13
sg14
VSpanish language
p110
sa(dp111
g3
VLanguages of Paraguay
p112
sg5
g6
sg7
Vhttp://wibitaxonomy.org/Category%3ALanguages_of_Paraguay
p113
sg9
I0
sg10
g105
sg12
g13
sg14
VLanguages of paraguay
p114
sa.