(lp1
(dp2
S'generalizedLabel'
p3
VMatter
p4
sS'term'
p5
Vcobalt
p6
sS'generalizedURI'
p7
Vhttp://wibitaxonomy.org/Matter
p8
sS'generalizedFreq'
p9
I7091
sS'subjectURI'
p10
Vhttp://wibitaxonomy.org/Cobalt
p11
sS'inputType'
p12
VCompound
p13
sS'generalizedLemma'
p14
Vmatter
p15
sa(dp16
g3
VChemistry
p17
sg5
g6
sg7
Vhttp://wibitaxonomy.org/Category%3AChemistry
p18
sg9
I4471
sg10
Vhttp://wibitaxonomy.org/Category%3ACobalt
p19
sg12
g13
sg14
Vchemistry
p20
sa(dp21
g3
VTransition metals
p22
sg5
g6
sg7
Vhttp://dbpedia.org/resource/Category:Transition_metals
p23
sg9
I193
sg10
Vhttp://dbpedia.org/resource/Cobalt
p24
sg12
g13
sg14
VTransition metal
p25
sa(dp26
g3
VTransition metals
p27
sg5
g6
sg7
Vhttp://dbpedia.org/resource/Category:Transition_metals
p28
sg9
I193
sg10
Vhttp://dbpedia.org/resource/Category:Cobalt
p29
sg12
g13
sg14
VTransition metal
p30
sa(dp31
g3
VCobalt
p32
sg5
g6
sg7
Vhttp://dbpedia.org/resource/Category:Cobalt
p33
sg9
I187
sg10
g24
sg12
g13
sg14
Vcobalt
p34
sa(dp35
g3
VChemical elements
p36
sg5
g6
sg7
Vhttp://dbpedia.org/resource/Category:Chemical_elements
p37
sg9
I29
sg10
g24
sg12
g13
sg14
VChemical element
p38
sa(dp39
g3
VChemical elements
p40
sg5
g6
sg7
Vhttp://dbpedia.org/resource/Category:Chemical_elements
p41
sg9
I29
sg10
g29
sg12
g13
sg14
VChemical element
p42
sa(dp43
g3
VChemical element
p44
sg5
g6
sg7
Vhttp://wibitaxonomy.org/Chemical_element
p45
sg9
I29
sg10
g11
sg12
g13
sg14
VChemical element
p46
sa(dp47
g3
VChemical elements
p48
sg5
g6
sg7
Vhttp://wibitaxonomy.org/Category%3AChemical_elements
p49
sg9
I29
sg10
g19
sg12
g13
sg14
VChemical element
p50
sa(dp51
g3
VChemical substance
p52
sg5
g6
sg7
Vhttp://wibitaxonomy.org/Chemical_substance
p53
sg9
I6
sg10
g11
sg12
g13
sg14
VChemical substance
p54
sa(dp55
g3
VChemical substances
p56
sg5
g6
sg7
Vhttp://wibitaxonomy.org/Category%3AChemical_substances
p57
sg9
I6
sg10
g19
sg12
g13
sg14
VChemical substance
p58
sa(dp59
g3
VFerromagnetic materials
p60
sg5
g6
sg7
Vhttp://dbpedia.org/resource/Category:Ferromagnetic_materials
p61
sg9
I2
sg10
g24
sg12
g13
sg14
VFerromagnetic material
p62
sa(dp63
g3
VIARC Group 2B carcinogens
p64
sg5
g6
sg7
Vhttp://dbpedia.org/resource/Category:IARC_Group_2B_carcinogens
p65
sg9
I0
sg10
g24
sg12
g13
sg14
VIARC Group 2B carcinogen
p66
sa(dp67
g3
VBiology and pharmacology of chemical elements
p68
sg5
g6
sg7
Vhttp://dbpedia.org/resource/Category:Biology_and_pharmacology_of_chemical_elements
p69
sg9
I0
sg10
g24
sg12
g13
sg14
VBiology and pharmacology of chemical element
p70
sa(dp71
g3
VDietary minerals
p72
sg5
g6
sg7
Vhttp://dbpedia.org/resource/Category:Dietary_minerals
p73
sg9
I0
sg10
g24
sg12
g13
sg14
VDietary mineral
p74
sa(dp75
g3
VWikipedia categories named after chemical elements
p76
sg5
g6
sg7
Vhttp://dbpedia.org/resource/Category:Wikipedia_categories_named_after_chemical_elements
p77
sg9
I0
sg10
g29
sg12
g13
sg14
VWikipedia categories named after chemical element
p78
sa.