(lp1
(dp2
S'generalizedLabel'
p3
Vriver
p4
sS'term'
p5
VColumbia River
p6
sS'generalizedURI'
p7
Vhttp://dbpedia.org/ontology/River
p8
sS'generalizedFreq'
p9
I6985
sS'subjectURI'
p10
Vhttp://dbpedia.org/resource/Columbia_River
p11
sS'inputType'
p12
VLocation
p13
sS'generalizedLemma'
p14
g4
sa(dp15
g3
VRiver
p16
sg5
g6
sg7
Vhttp://wibitaxonomy.org/River
p17
sg9
I6985
sg10
Vhttp://wibitaxonomy.org/Columbia_River
p18
sg12
g13
sg14
Vriver
p19
sa(dp20
g3
Vplace
p21
sg5
g6
sg7
Vhttp://dbpedia.org/ontology/Place
p22
sg9
I6273
sg10
g11
sg12
g13
sg14
g21
sa(dp23
g3
Vstream
p24
sg5
g6
sg7
Vhttp://dbpedia.org/ontology/Stream
p25
sg9
I3832
sg10
g11
sg12
g13
sg14
g24
sa(dp26
g3
VColumbia River
p27
sg5
g6
sg7
Vhttp://dbpedia.org/resource/Category:Columbia_River
p28
sg9
I130
sg10
g11
sg12
g13
sg14
VColumbia river
p29
sa(dp30
g3
Vbody of water
p31
sg5
g6
sg7
Vhttp://dbpedia.org/ontology/BodyOfWater
p32
sg9
I27
sg10
g11
sg12
g13
sg14
Vbody of water
p33
sa(dp34
g3
VBody of water
p35
sg5
g6
sg7
Vhttp://wibitaxonomy.org/Body_of_water
p36
sg9
I27
sg10
g18
sg12
g13
sg14
VBody of water
p37
sa(dp38
g3
VWatercourse
p39
sg5
g6
sg7
Vhttp://wibitaxonomy.org/Watercourse
p40
sg9
I8
sg10
g18
sg12
g13
sg14
Vwatercourse
p41
sa(dp42
g3
Vnatural place
p43
sg5
g6
sg7
Vhttp://dbpedia.org/ontology/NaturalPlace
p44
sg9
I1
sg10
g11
sg12
g13
sg14
Vnatural place
p45
sa(dp46
g3
VRivers of Washington (state)
p47
sg5
g6
sg7
Vhttp://dbpedia.org/resource/Category:Rivers_of_Washington_(state)
p48
sg9
I0
sg10
g11
sg12
g13
sg14
VRivers of Washington (state)
p49
sa(dp50
g3
VDrainage basins of the Pacific Ocean
p51
sg5
g6
sg7
Vhttp://dbpedia.org/resource/Category:Drainage_basins_of_the_Pacific_Ocean
p52
sg9
I0
sg10
g11
sg12
g13
sg14
VDrainage basins of the Pacific ocean
p53
sa(dp54
g3
VColumbia River Gorge
p55
sg5
g6
sg7
Vhttp://dbpedia.org/resource/Category:Columbia_River_Gorge
p56
sg9
I0
sg10
g11
sg12
g13
sg14
VColumbia River gorge
p57
sa(dp58
g3
VRivers of Oregon
p59
sg5
g6
sg7
Vhttp://dbpedia.org/resource/Category:Rivers_of_Oregon
p60
sg9
I0
sg10
g11
sg12
g13
sg14
VRivers of oregon
p61
sa(dp62
g3
VBorders of Washington (state)
p63
sg5
g6
sg7
Vhttp://dbpedia.org/resource/Category:Borders_of_Washington_(state)
p64
sg9
I0
sg10
g11
sg12
g13
sg14
VBorders of Washington (state)
p65
sa(dp66
g3
VRivers of British Columbia
p67
sg5
g6
sg7
Vhttp://dbpedia.org/resource/Category:Rivers_of_British_Columbia
p68
sg9
I0
sg10
g11
sg12
g13
sg14
VRivers of British columbia
p69
sa(dp70
g3
VInternational rivers of North America
p71
sg5
g6
sg7
Vhttp://dbpedia.org/resource/Category:International_rivers_of_North_America
p72
sg9
I0
sg10
g11
sg12
g13
sg14
VInternational rivers of North america
p73
sa(dp74
g3
VLandforms of Hood River County, Oregon
p75
sg5
g6
sg7
Vhttp://dbpedia.org/resource/Category:Landforms_of_Hood_River_County,_Oregon
p76
sg9
I0
sg10
g11
sg12
g13
sg14
VLandforms of Hood River County, oregon
p77
sa(dp78
g3
VBorders of Oregon
p79
sg5
g6
sg7
Vhttp://dbpedia.org/resource/Category:Borders_of_Oregon
p80
sg9
I0
sg10
g11
sg12
g13
sg14
VBorders of oregon
p81
sa(dp82
g3
Nsg5
g6
sg7
Vhttp://dbpedia.org/ontology/Location
p83
sg9
I0
sg10
g11
sg12
g13
sg14
Nsa(dp84
g3
VRivers of Washington (state)
p85
sg5
g6
sg7
Vhttp://dbpedia.org/resource/Category:Rivers_of_Washington_(state)
p86
sg9
I0
sg10
Vhttp://dbpedia.org/resource/Category:Columbia_River
p87
sg12
g13
sg14
VRivers of Washington (state)
p88
sa(dp89
g3
VDrainage basins of the Pacific Ocean
p90
sg5
g6
sg7
Vhttp://dbpedia.org/resource/Category:Drainage_basins_of_the_Pacific_Ocean
p91
sg9
I0
sg10
g87
sg12
g13
sg14
VDrainage basins of the Pacific ocean
p92
sa(dp93
g3
VRivers of Oregon
p94
sg5
g6
sg7
Vhttp://dbpedia.org/resource/Category:Rivers_of_Oregon
p95
sg9
I0
sg10
g87
sg12
g13
sg14
VRivers of oregon
p96
sa(dp97
g3
VWikipedia categories named after rivers
p98
sg5
g6
sg7
Vhttp://dbpedia.org/resource/Category:Wikipedia_categories_named_after_rivers
p99
sg9
I0
sg10
g87
sg12
g13
sg14
VWikipedia categories named after river
p100
sa(dp101
g3
VBorders of Washington (state)
p102
sg5
g6
sg7
Vhttp://dbpedia.org/resource/Category:Borders_of_Washington_(state)
p103
sg9
I0
sg10
g87
sg12
g13
sg14
VBorders of Washington (state)
p104
sa(dp105
g3
VRivers of British Columbia
p106
sg5
g6
sg7
Vhttp://dbpedia.org/resource/Category:Rivers_of_British_Columbia
p107
sg9
I0
sg10
g87
sg12
g13
sg14
VRivers of British columbia
p108
sa(dp109
g3
VInternational rivers of North America
p110
sg5
g6
sg7
Vhttp://dbpedia.org/resource/Category:International_rivers_of_North_America
p111
sg9
I0
sg10
g87
sg12
g13
sg14
VInternational rivers of North america
p112
sa(dp113
g3
VLandforms of Hood River County, Oregon
p114
sg5
g6
sg7
Vhttp://dbpedia.org/resource/Category:Landforms_of_Hood_River_County,_Oregon
p115
sg9
I0
sg10
g87
sg12
g13
sg14
VLandforms of Hood River County, oregon
p116
sa(dp117
g3
VBorders of Oregon
p118
sg5
g6
sg7
Vhttp://dbpedia.org/resource/Category:Borders_of_Oregon
p119
sg9
I0
sg10
g87
sg12
g13
sg14
VBorders of oregon
p120
sa(dp121
g3
VColumbia River Gorge
p122
sg5
g6
sg7
Vhttp://wibitaxonomy.org/Category%3AColumbia_River_Gorge
p123
sg9
I0
sg10
Vhttp://wibitaxonomy.org/Category%3AColumbia_River
p124
sg12
g13
sg14
VColumbia River gorge
p125
sa.