(lp1
(dp2
S'generalizedLabel'
p3
Vanimal
p4
sS'term'
p5
VD. galeata
p6
sS'generalizedURI'
p7
Vhttp://dbpedia.org/ontology/Animal
p8
sS'generalizedFreq'
p9
I7628
sS'subjectURI'
p10
Vhttp://dbpedia.org/resource/Danilia_galeata
p11
sS'inputType'
p12
VSpecies
p13
sS'generalizedLemma'
p14
g4
sa(dp15
g3
VAnimal
p16
sg5
g6
sg7
Vhttp://dbpedia.org/resource/Animal
p17
sg9
I7628
sg10
g11
sg12
g13
sg14
Vanimal
p18
sa(dp19
g3
Vanimal
p20
sg5
g6
sg7
Vhttp://dbpedia.org/ontology/Animal
p21
sg9
I7628
sg10
Vhttp://dbpedia.org/resource/Marquesan_imperial_pigeon
p22
sg12
g13
sg14
g20
sa(dp23
g3
VAnimal
p24
sg5
g6
sg7
Vhttp://dbpedia.org/resource/Animal
p25
sg9
I7628
sg10
g22
sg12
g13
sg14
Vanimal
p26
sa(dp27
g3
Vanimal
p28
sg5
g6
sg7
Vhttp://dbpedia.org/ontology/Animal
p29
sg9
I7628
sg10
Vhttp://dbpedia.org/resource/Daphnia_galeata
p30
sg12
g13
sg14
g28
sa(dp31
g3
VAnimal
p32
sg5
g6
sg7
Vhttp://dbpedia.org/resource/Animal
p33
sg9
I7628
sg10
g30
sg12
g13
sg14
Vanimal
p34
sa(dp35
g3
Vbird
p36
sg5
g6
sg7
Vhttp://dbpedia.org/ontology/Bird
p37
sg9
I2602
sg10
g22
sg12
g13
sg14
g36
sa(dp38
g3
VBird
p39
sg5
g6
sg7
Vhttp://dbpedia.org/resource/Bird
p40
sg9
I2602
sg10
g22
sg12
g13
sg14
Vbird
p41
sa(dp42
g3
Veukaryote
p43
sg5
g6
sg7
Vhttp://dbpedia.org/ontology/Eukaryote
p44
sg9
I1907
sg10
g11
sg12
g13
sg14
g43
sa(dp45
g3
Veukaryote
p46
sg5
g6
sg7
Vhttp://dbpedia.org/ontology/Eukaryote
p47
sg9
I1907
sg10
g22
sg12
g13
sg14
g46
sa(dp48
g3
Veukaryote
p49
sg5
g6
sg7
Vhttp://dbpedia.org/ontology/Eukaryote
p50
sg9
I1907
sg10
g30
sg12
g13
sg14
g49
sa(dp51
g3
VArthropod
p52
sg5
g6
sg7
Vhttp://dbpedia.org/resource/Arthropod
p53
sg9
I538
sg10
g30
sg12
g13
sg14
Varthropod
p54
sa(dp55
g3
Vcrustacean
p56
sg5
g6
sg7
Vhttp://dbpedia.org/ontology/Crustacean
p57
sg9
I317
sg10
g30
sg12
g13
sg14
g56
sa(dp58
g3
VCrustacean
p59
sg5
g6
sg7
Vhttp://dbpedia.org/resource/Crustacean
p60
sg9
I317
sg10
g30
sg12
g13
sg14
Vcrustacean
p61
sa(dp62
g3
VChordate
p63
sg5
g6
sg7
Vhttp://dbpedia.org/resource/Chordate
p64
sg9
I77
sg10
g22
sg12
g13
sg14
Vchordate
p65
sa(dp66
g3
Vmollusca
p67
sg5
g6
sg7
Vhttp://dbpedia.org/ontology/Mollusca
p68
sg9
I44
sg10
g11
sg12
g13
sg14
g67
sa(dp69
g3
VMollusca
p70
sg5
g6
sg7
Vhttp://dbpedia.org/resource/Mollusca
p71
sg9
I44
sg10
g11
sg12
g13
sg14
Vmollusca
p72
sa(dp73
g3
VGastropoda
p74
sg5
g6
sg7
Vhttp://dbpedia.org/resource/Gastropoda
p75
sg9
I21
sg10
g11
sg12
g13
sg14
Vgastropoda
p76
sa(dp77
g3
Vspecies
p78
sg5
g6
sg7
Vhttp://dbpedia.org/ontology/Species
p79
sg9
I5
sg10
g11
sg12
g13
sg14
Vspecie
p80
sa(dp81
g3
Vspecies
p82
sg5
g6
sg7
Vhttp://dbpedia.org/ontology/Species
p83
sg9
I5
sg10
g22
sg12
g13
sg14
Vspecie
p84
sa(dp85
g3
Vspecies
p86
sg5
g6
sg7
Vhttp://dbpedia.org/ontology/Species
p87
sg9
I5
sg10
g30
sg12
g13
sg14
Vspecie
p88
sa(dp89
g3
VBranchiopoda
p90
sg5
g6
sg7
Vhttp://dbpedia.org/resource/Category:Branchiopoda
p91
sg9
I3
sg10
g30
sg12
g13
sg14
Vbranchiopoda
p92
sa(dp93
g3
VFreshwater crustaceans
p94
sg5
g6
sg7
Vhttp://dbpedia.org/resource/Category:Freshwater_crustaceans
p95
sg9
I3
sg10
g30
sg12
g13
sg14
VFreshwater crustacean
p96
sa(dp97
g3
VBranchiopoda
p98
sg5
g6
sg7
Vhttp://dbpedia.org/resource/Branchiopoda
p99
sg9
I3
sg10
g30
sg12
g13
sg14
Vbranchiopoda
p100
sa(dp101
g3
VDanilia
p102
sg5
g6
sg7
Vhttp://dbpedia.org/resource/Category:Danilia
p103
sg9
I0
sg10
g11
sg12
g13
sg14
Vdanilia
p104
sa(dp105
g3
VFauna of the Marquesas Islands
p106
sg5
g6
sg7
Vhttp://dbpedia.org/resource/Category:Fauna_of_the_Marquesas_Islands
p107
sg9
I0
sg10
g22
sg12
g13
sg14
VFauna of the Marquesas island
p108
sa(dp109
g3
VDucula
p110
sg5
g6
sg7
Vhttp://dbpedia.org/resource/Category:Ducula
p111
sg9
I0
sg10
g22
sg12
g13
sg14
Vducula
p112
sa(dp113
g3
VAnimals described in 1855
p114
sg5
g6
sg7
Vhttp://dbpedia.org/resource/Category:Animals_described_in_1855
p115
sg9
I0
sg10
g22
sg12
g13
sg14
VAnimals described in 1855
p116
sa(dp117
g3
VAnimals described in 1864
p118
sg5
g6
sg7
Vhttp://dbpedia.org/resource/Category:Animals_described_in_1864
p119
sg9
I0
sg10
g30
sg12
g13
sg14
VAnimals described in 1864
p120
sa.