(lp1
(dp2
S'generalizedLabel'
p3
Vanimal
p4
sS'term'
p5
VDaphnia galeata
p6
sS'generalizedURI'
p7
Vhttp://dbpedia.org/ontology/Animal
p8
sS'generalizedFreq'
p9
I7628
sS'subjectURI'
p10
Vhttp://dbpedia.org/resource/Daphnia_galeata
p11
sS'inputType'
p12
VSpecies
p13
sS'generalizedLemma'
p14
g4
sa(dp15
g3
VAnimal
p16
sg5
g6
sg7
Vhttp://dbpedia.org/resource/Animal
p17
sg9
I7628
sg10
g11
sg12
g13
sg14
Vanimal
p18
sa(dp19
g3
Veukaryote
p20
sg5
g6
sg7
Vhttp://dbpedia.org/ontology/Eukaryote
p21
sg9
I1907
sg10
g11
sg12
g13
sg14
g20
sa(dp22
g3
VArthropod
p23
sg5
g6
sg7
Vhttp://dbpedia.org/resource/Arthropod
p24
sg9
I538
sg10
g11
sg12
g13
sg14
Varthropod
p25
sa(dp26
g3
Vcrustacean
p27
sg5
g6
sg7
Vhttp://dbpedia.org/ontology/Crustacean
p28
sg9
I317
sg10
g11
sg12
g13
sg14
g27
sa(dp29
g3
VCrustacean
p30
sg5
g6
sg7
Vhttp://dbpedia.org/resource/Crustacean
p31
sg9
I317
sg10
g11
sg12
g13
sg14
Vcrustacean
p32
sa(dp33
g3
VCrustacean
p34
sg5
g6
sg7
Vhttp://wibitaxonomy.org/Crustacean
p35
sg9
I317
sg10
Vhttp://wibitaxonomy.org/Daphnia_galeata
p36
sg12
g13
sg14
Vcrustacean
p37
sa(dp38
g3
Vspecies
p39
sg5
g6
sg7
Vhttp://dbpedia.org/ontology/Species
p40
sg9
I5
sg10
g11
sg12
g13
sg14
Vspecie
p41
sa(dp42
g3
VBranchiopoda
p43
sg5
g6
sg7
Vhttp://dbpedia.org/resource/Category:Branchiopoda
p44
sg9
I3
sg10
g11
sg12
g13
sg14
Vbranchiopoda
p45
sa(dp46
g3
VFreshwater crustaceans
p47
sg5
g6
sg7
Vhttp://dbpedia.org/resource/Category:Freshwater_crustaceans
p48
sg9
I3
sg10
g11
sg12
g13
sg14
VFreshwater crustacean
p49
sa(dp50
g3
VBranchiopoda
p51
sg5
g6
sg7
Vhttp://dbpedia.org/resource/Branchiopoda
p52
sg9
I3
sg10
g11
sg12
g13
sg14
Vbranchiopoda
p53
sa(dp54
g3
VAnimals described in 1864
p55
sg5
g6
sg7
Vhttp://dbpedia.org/resource/Category:Animals_described_in_1864
p56
sg9
I0
sg10
g11
sg12
g13
sg14
VAnimals described in 1864
p57
sa.