(lp1
(dp2
S'generalizedLabel'
p3
Vanimal
p4
sS'term'
p5
VDaphnia magna
p6
sS'generalizedURI'
p7
Vhttp://dbpedia.org/ontology/Animal
p8
sS'generalizedFreq'
p9
I7628
sS'subjectURI'
p10
Vhttp://dbpedia.org/resource/Daphnia_magna
p11
sS'inputType'
p12
VSpecies
p13
sS'generalizedLemma'
p14
g4
sa(dp15
g3
VAnimal
p16
sg5
g6
sg7
Vhttp://dbpedia.org/resource/Animal
p17
sg9
I7628
sg10
g11
sg12
g13
sg14
Vanimal
p18
sa(dp19
g3
Veukaryote
p20
sg5
g6
sg7
Vhttp://dbpedia.org/ontology/Eukaryote
p21
sg9
I1907
sg10
g11
sg12
g13
sg14
g20
sa(dp22
g3
VArthropod
p23
sg5
g6
sg7
Vhttp://dbpedia.org/resource/Arthropod
p24
sg9
I538
sg10
g11
sg12
g13
sg14
Varthropod
p25
sa(dp26
g3
VDaphnia
p27
sg5
g6
sg7
Vhttp://wibitaxonomy.org/Daphnia
p28
sg9
I419
sg10
Vhttp://wibitaxonomy.org/Daphnia_magna
p29
sg12
g13
sg14
Vdaphnia
p30
sa(dp31
g3
Vcrustacean
p32
sg5
g6
sg7
Vhttp://dbpedia.org/ontology/Crustacean
p33
sg9
I317
sg10
g11
sg12
g13
sg14
g32
sa(dp34
g3
VCrustacean
p35
sg5
g6
sg7
Vhttp://dbpedia.org/resource/Crustacean
p36
sg9
I317
sg10
g11
sg12
g13
sg14
Vcrustacean
p37
sa(dp38
g3
VCrustacean
p39
sg5
g6
sg7
Vhttp://wibitaxonomy.org/Crustacean
p40
sg9
I317
sg10
g29
sg12
g13
sg14
Vcrustacean
p41
sa(dp42
g3
Vspecies
p43
sg5
g6
sg7
Vhttp://dbpedia.org/ontology/Species
p44
sg9
I5
sg10
g11
sg12
g13
sg14
Vspecie
p45
sa(dp46
g3
VBranchiopoda
p47
sg5
g6
sg7
Vhttp://dbpedia.org/resource/Category:Branchiopoda
p48
sg9
I3
sg10
g11
sg12
g13
sg14
Vbranchiopoda
p49
sa(dp50
g3
VBranchiopoda
p51
sg5
g6
sg7
Vhttp://dbpedia.org/resource/Branchiopoda
p52
sg9
I3
sg10
g11
sg12
g13
sg14
Vbranchiopoda
p53
sa(dp54
g3
VAnimals described in 1820
p55
sg5
g6
sg7
Vhttp://dbpedia.org/resource/Category:Animals_described_in_1820
p56
sg9
I0
sg10
g11
sg12
g13
sg14
VAnimals described in 1820
p57
sa(dp58
g3
VFreshwater crustaceans of North America
p59
sg5
g6
sg7
Vhttp://dbpedia.org/resource/Category:Freshwater_crustaceans_of_North_America
p60
sg9
I0
sg10
g11
sg12
g13
sg14
VFreshwater crustaceans of North america
p61
sa.