(lp1
(dp2
S'generalizedLabel'
p3
VOrganic compound
p4
sS'term'
p5
VDimethylsulfoniopropionate
p6
sS'generalizedURI'
p7
Vhttp://wibitaxonomy.org/Organic_compound
p8
sS'generalizedFreq'
p9
I774
sS'subjectURI'
p10
Vhttp://wibitaxonomy.org/Dimethylsulfoniopropionate
p11
sS'inputType'
p12
VCompound
p13
sS'generalizedLemma'
p14
VOrganic compound
p15
sa(dp16
g3
Vchemical compound
p17
sg5
g6
sg7
Vhttp://dbpedia.org/ontology/ChemicalCompound
p18
sg9
I76
sg10
Vhttp://dbpedia.org/resource/Dimethylsulfoniopropionate
p19
sg12
g13
sg14
Vchemical compound
p20
sa(dp21
g3
Vchemical substance
p22
sg5
g6
sg7
Vhttp://dbpedia.org/ontology/ChemicalSubstance
p23
sg9
I6
sg10
g19
sg12
g13
sg14
Vchemical substance
p24
sa(dp25
g3
VOrganosulfur compounds
p26
sg5
g6
sg7
Vhttp://wibitaxonomy.org/Organosulfur_compounds
p27
sg9
I4
sg10
g11
sg12
g13
sg14
VOrganosulfur compound
p28
sa(dp29
g3
VThioethers
p30
sg5
g6
sg7
Vhttp://dbpedia.org/resource/Category:Thioethers
p31
sg9
I0
sg10
g19
sg12
g13
sg14
Vthioethers
p32
sa(dp33
g3
VPlanktology
p34
sg5
g6
sg7
Vhttp://dbpedia.org/resource/Category:Planktology
p35
sg9
I0
sg10
g19
sg12
g13
sg14
Vplanktology
p36
sa(dp37
g3
VCarboxylate anions
p38
sg5
g6
sg7
Vhttp://dbpedia.org/resource/Category:Carboxylate_anions
p39
sg9
I0
sg10
g19
sg12
g13
sg14
VCarboxylate anion
p40
sa.