(lp1
(dp2
S'generalizedLabel'
p3
VNature
p4
sS'term'
p5
VEarth
p6
sS'generalizedURI'
p7
Vhttp://dbpedia.org/resource/Category:Nature
p8
sS'generalizedFreq'
p9
I16736
sS'subjectURI'
p10
Vhttp://dbpedia.org/resource/Category:Earth
p11
sS'inputType'
p12
VLocation
p13
sS'generalizedLemma'
p14
Vnature
p15
sa(dp16
g3
VEarth
p17
sg5
g6
sg7
Vhttp://dbpedia.org/resource/Category:Earth
p18
sg9
I14589
sg10
Vhttp://dbpedia.org/resource/Earth
p19
sg12
g13
sg14
Vearth
p20
sa(dp21
g3
VStructure
p22
sg5
g6
sg7
Vhttp://wibitaxonomy.org/Category%3AStructure
p23
sg9
I10356
sg10
Vhttp://wibitaxonomy.org/Category%3AEarth
p24
sg12
g13
sg14
Vstructure
p25
sa(dp26
g3
VPlaces
p27
sg5
g6
sg7
Vhttp://dbpedia.org/resource/Category:Places
p28
sg9
I6273
sg10
g11
sg12
g13
sg14
Vplace
p29
sa(dp30
g3
VPlaces
p31
sg5
g6
sg7
Vhttp://wibitaxonomy.org/Category%3APlaces
p32
sg9
I6273
sg10
g24
sg12
g13
sg14
Vplace
p33
sa(dp34
g3
Vplanet
p35
sg5
g6
sg7
Vhttp://dbpedia.org/ontology/Planet
p36
sg9
I4628
sg10
g19
sg12
g13
sg14
g35
sa(dp37
g3
VPlanet
p38
sg5
g6
sg7
Vhttp://wibitaxonomy.org/Planet
p39
sg9
I4628
sg10
Vhttp://wibitaxonomy.org/Earth
p40
sg12
g13
sg14
Vplanet
p41
sa(dp42
g3
VGeography
p43
sg5
g6
sg7
Vhttp://wibitaxonomy.org/Category%3AGeography
p44
sg9
I765
sg10
g24
sg12
g13
sg14
Vgeography
p45
sa(dp46
g3
VTerrestrial planets
p47
sg5
g6
sg7
Vhttp://dbpedia.org/resource/Category:Terrestrial_planets
p48
sg9
I45
sg10
g19
sg12
g13
sg14
VTerrestrial planet
p49
sa(dp50
g3
Vcelestial body
p51
sg5
g6
sg7
Vhttp://dbpedia.org/ontology/CelestialBody
p52
sg9
I9
sg10
g19
sg12
g13
sg14
Vcelestial body
p53
sa(dp54
g3
VPlanets of the Solar System
p55
sg5
g6
sg7
Vhttp://dbpedia.org/resource/Category:Planets_of_the_Solar_System
p56
sg9
I2
sg10
g11
sg12
g13
sg14
VPlanets of the Solar system
p57
sa(dp58
g3
VRegions of France
p59
sg5
g6
sg7
Vhttp://wibitaxonomy.org/Regions_of_France
p60
sg9
I2
sg10
g40
sg12
g13
sg14
VRegions of france
p61
sa(dp62
g3
VAstronomical object
p63
sg5
g6
sg7
Vhttp://wibitaxonomy.org/Astronomical_object
p64
sg9
I1
sg10
g40
sg12
g13
sg14
VAstronomical object
p65
sa(dp66
g3
VHabitable zone planets
p67
sg5
g6
sg7
Vhttp://dbpedia.org/resource/Category:Habitable_zone_planets
p68
sg9
I0
sg10
g19
sg12
g13
sg14
VHabitable zone planet
p69
sa(dp70
g3
VHabitable zone planets
p71
sg5
g6
sg7
Vhttp://dbpedia.org/resource/Category:Habitable_zone_planets
p72
sg9
I0
sg10
g11
sg12
g13
sg14
VHabitable zone planet
p73
sa.