(lp1
(dp2
S'generalizedLabel'
p3
Vplace
p4
sS'term'
p5
VEnglish Channel
p6
sS'generalizedURI'
p7
Vhttp://dbpedia.org/ontology/Place
p8
sS'generalizedFreq'
p9
I6273
sS'subjectURI'
p10
Vhttp://dbpedia.org/resource/English_Channel
p11
sS'inputType'
p12
VLocation
p13
sS'generalizedLemma'
p14
g4
sa(dp15
g3
VNorth Sea
p16
sg5
g6
sg7
Vhttp://dbpedia.org/resource/Category:North_Sea
p17
sg9
I795
sg10
g11
sg12
g13
sg14
VNorth sea
p18
sa(dp19
g3
VNorth Sea
p20
sg5
g6
sg7
Vhttp://dbpedia.org/resource/Category:North_Sea
p21
sg9
I795
sg10
Vhttp://dbpedia.org/resource/Category:English_Channel
p22
sg12
g13
sg14
VNorth sea
p23
sa(dp24
g3
VEnglish Channel
p25
sg5
g6
sg7
Vhttp://dbpedia.org/resource/Category:English_Channel
p26
sg9
I252
sg10
g11
sg12
g13
sg14
VEnglish channel
p27
sa(dp28
g3
VEuropean seas
p29
sg5
g6
sg7
Vhttp://dbpedia.org/resource/Category:European_seas
p30
sg9
I44
sg10
g11
sg12
g13
sg14
VEuropean sea
p31
sa(dp32
g3
VEuropean seas
p33
sg5
g6
sg7
Vhttp://dbpedia.org/resource/Category:European_seas
p34
sg9
I44
sg10
g22
sg12
g13
sg14
VEuropean sea
p35
sa(dp36
g3
Vbody of water
p37
sg5
g6
sg7
Vhttp://dbpedia.org/ontology/BodyOfWater
p38
sg9
I27
sg10
g11
sg12
g13
sg14
Vbody of water
p39
sa(dp40
g3
VEnglish coast
p41
sg5
g6
sg7
Vhttp://dbpedia.org/resource/Category:English_coast
p42
sg9
I1
sg10
g11
sg12
g13
sg14
VEnglish coast
p43
sa(dp44
g3
Vnatural place
p45
sg5
g6
sg7
Vhttp://dbpedia.org/ontology/NaturalPlace
p46
sg9
I1
sg10
g11
sg12
g13
sg14
Vnatural place
p47
sa(dp48
g3
VEnglish coast
p49
sg5
g6
sg7
Vhttp://dbpedia.org/resource/Category:English_coast
p50
sg9
I1
sg10
g22
sg12
g13
sg14
VEnglish coast
p51
sa(dp52
g3
VEnglish coast
p53
sg5
g6
sg7
Vhttp://wibitaxonomy.org/Category%3AEnglish_coast
p54
sg9
I1
sg10
Vhttp://wibitaxonomy.org/Category%3AEnglish_Channel
p55
sg12
g13
sg14
VEnglish coast
p56
sa(dp57
g3
VStraits of Europe
p58
sg5
g6
sg7
Vhttp://dbpedia.org/resource/Category:Straits_of_Europe
p59
sg9
I0
sg10
g11
sg12
g13
sg14
VStraits of europe
p60
sa(dp61
g3
VFrance\u2013United Kingdom border
p62
sg5
g6
sg7
Vhttp://dbpedia.org/resource/Category:France\u2013United_Kingdom_border
p63
sg9
I0
sg10
g11
sg12
g13
sg14
VFrance\u2013United Kingdom border
p64
sa(dp65
g3
VStraits of England
p66
sg5
g6
sg7
Vhttp://dbpedia.org/resource/Category:Straits_of_England
p67
sg9
I0
sg10
g11
sg12
g13
sg14
VStraits of england
p68
sa(dp69
g3
VMarginal seas of the Atlantic Ocean
p70
sg5
g6
sg7
Vhttp://dbpedia.org/resource/Category:Marginal_seas_of_the_Atlantic_Ocean
p71
sg9
I0
sg10
g11
sg12
g13
sg14
VMarginal seas of the Atlantic ocean
p72
sa(dp73
g3
VInternational straits
p74
sg5
g6
sg7
Vhttp://dbpedia.org/resource/Category:International_straits
p75
sg9
I0
sg10
g11
sg12
g13
sg14
VInternational strait
p76
sa(dp77
g3
VStraits of France
p78
sg5
g6
sg7
Vhttp://dbpedia.org/resource/Category:Straits_of_France
p79
sg9
I0
sg10
g11
sg12
g13
sg14
VStraits of france
p80
sa(dp81
g3
VFrance\u2013United Kingdom border
p82
sg5
g6
sg7
Vhttp://dbpedia.org/resource/Category:France%E2%80%93United_Kingdom_border
p83
sg9
I0
sg10
g11
sg12
g13
sg14
VFrance\u2013United Kingdom border
p84
sa(dp85
g3
VLandforms of Nord-Pas-de-Calais
p86
sg5
g6
sg7
Vhttp://dbpedia.org/resource/Category:Landforms_of_Nord-Pas-de-Calais
p87
sg9
I0
sg10
g11
sg12
g13
sg14
VLandforms of nord-pas-de-calais
p88
sa(dp89
g3
VLandforms of Brittany
p90
sg5
g6
sg7
Vhttp://dbpedia.org/resource/Category:Landforms_of_Brittany
p91
sg9
I0
sg10
g11
sg12
g13
sg14
VLandforms of brittany
p92
sa(dp93
g3
VLandforms of Lower Normandy
p94
sg5
g6
sg7
Vhttp://dbpedia.org/resource/Category:Landforms_of_Lower_Normandy
p95
sg9
I0
sg10
g11
sg12
g13
sg14
VLandforms of Lower normandy
p96
sa(dp97
g3
VLandforms of Upper Normandy
p98
sg5
g6
sg7
Vhttp://dbpedia.org/resource/Category:Landforms_of_Upper_Normandy
p99
sg9
I0
sg10
g11
sg12
g13
sg14
VLandforms of Upper normandy
p100
sa(dp101
g3
Nsg5
g6
sg7
Vhttp://dbpedia.org/ontology/Location
p102
sg9
I0
sg10
g11
sg12
g13
sg14
Nsa(dp103
g3
VStraits of Europe
p104
sg5
g6
sg7
Vhttp://dbpedia.org/resource/Category:Straits_of_Europe
p105
sg9
I0
sg10
g22
sg12
g13
sg14
VStraits of europe
p106
sa(dp107
g3
VWikipedia categories named after bodies of water
p108
sg5
g6
sg7
Vhttp://dbpedia.org/resource/Category:Wikipedia_categories_named_after_bodies_of_water
p109
sg9
I0
sg10
g22
sg12
g13
sg14
VWikipedia categories named after bodies of water
p110
sa(dp111
g3
VStraits of England
p112
sg5
g6
sg7
Vhttp://dbpedia.org/resource/Category:Straits_of_England
p113
sg9
I0
sg10
g22
sg12
g13
sg14
VStraits of england
p114
sa(dp115
g3
VMarginal seas of the Atlantic Ocean
p116
sg5
g6
sg7
Vhttp://dbpedia.org/resource/Category:Marginal_seas_of_the_Atlantic_Ocean
p117
sg9
I0
sg10
g22
sg12
g13
sg14
VMarginal seas of the Atlantic ocean
p118
sa(dp119
g3
VInternational straits
p120
sg5
g6
sg7
Vhttp://dbpedia.org/resource/Category:International_straits
p121
sg9
I0
sg10
g22
sg12
g13
sg14
VInternational strait
p122
sa(dp123
g3
VStraits of France
p124
sg5
g6
sg7
Vhttp://dbpedia.org/resource/Category:Straits_of_France
p125
sg9
I0
sg10
g22
sg12
g13
sg14
VStraits of france
p126
sa(dp127
g3
VFrance\u2013United Kingdom border
p128
sg5
g6
sg7
Vhttp://dbpedia.org/resource/Category:France%E2%80%93United_Kingdom_border
p129
sg9
I0
sg10
g22
sg12
g13
sg14
VFrance\u2013United Kingdom border
p130
sa(dp131
g3
VLandforms of Nord-Pas-de-Calais
p132
sg5
g6
sg7
Vhttp://dbpedia.org/resource/Category:Landforms_of_Nord-Pas-de-Calais
p133
sg9
I0
sg10
g22
sg12
g13
sg14
VLandforms of nord-pas-de-calais
p134
sa(dp135
g3
VLandforms of Brittany
p136
sg5
g6
sg7
Vhttp://dbpedia.org/resource/Category:Landforms_of_Brittany
p137
sg9
I0
sg10
g22
sg12
g13
sg14
VLandforms of brittany
p138
sa(dp139
g3
VLandforms of Lower Normandy
p140
sg5
g6
sg7
Vhttp://dbpedia.org/resource/Category:Landforms_of_Lower_Normandy
p141
sg9
I0
sg10
g22
sg12
g13
sg14
VLandforms of Lower normandy
p142
sa(dp143
g3
VLandforms of Upper Normandy
p144
sg5
g6
sg7
Vhttp://dbpedia.org/resource/Category:Landforms_of_Upper_Normandy
p145
sg9
I0
sg10
g22
sg12
g13
sg14
VLandforms of Upper normandy
p146
sa(dp147
g3
VArm %5C%28geography%5C%29
p148
sg5
g6
sg7
Vhttp://wibitaxonomy.org/Arm_%5C%28geography%5C%29
p149
sg9
I0
sg10
Vhttp://wibitaxonomy.org/English_Channel
p150
sg12
g13
sg14
VArm %5c%28geography%5c%29
p151
sa(dp152
g3
VField extension
p153
sg5
g6
sg7
Vhttp://wibitaxonomy.org/Field_extension
p154
sg9
I0
sg10
g150
sg12
g13
sg14
VField extension
p155
sa(dp156
g3
VCategory %5C%28mathematics%5C%29
p157
sg5
g6
sg7
Vhttp://wibitaxonomy.org/Category_%5C%28mathematics%5C%29
p158
sg9
I0
sg10
g150
sg12
g13
sg14
VCategory %5c%28mathematics%5c%29
p159
sa(dp160
g3
VEnglish coast and countryside
p161
sg5
g6
sg7
Vhttp://wibitaxonomy.org/Category%3AEnglish_coast_and_countryside
p162
sg9
I0
sg10
g55
sg12
g13
sg14
VEnglish coast and countryside
p163
sa(dp164
g3
VGeography of England
p165
sg5
g6
sg7
Vhttp://wibitaxonomy.org/Category%3AGeography_of_England
p166
sg9
I0
sg10
g55
sg12
g13
sg14
VGeography of england
p167
sa.