(lp1
(dp2
S'generalizedLabel'
p3
VEnglish surnames
p4
sS'term'
p5
VFitzroy
p6
sS'generalizedURI'
p7
Vhttp://dbpedia.org/resource/Category:English_surnames
p8
sS'generalizedFreq'
p9
I0
sS'subjectURI'
p10
Vhttp://dbpedia.org/resource/Fitzroy
p11
sS'inputType'
p12
VLocation
p13
sS'generalizedLemma'
p14
VEnglish surname
p15
sa(dp16
g3
VNorman-language surnames
p17
sg5
g6
sg7
Vhttp://dbpedia.org/resource/Category:Norman-language_surnames
p18
sg9
I0
sg10
g11
sg12
g13
sg14
VNorman-language surname
p19
sa.