(lp1
(dp2
S'generalizedLabel'
p3
Vplace
p4
sS'term'
p5
VFrance
p6
sS'generalizedURI'
p7
Vhttp://dbpedia.org/ontology/Place
p8
sS'generalizedFreq'
p9
I6273
sS'subjectURI'
p10
Vhttp://dbpedia.org/resource/France
p11
sS'inputType'
p12
VLocation
p13
sS'generalizedLemma'
p14
g4
sa(dp15
g3
Vcountry
p16
sg5
g6
sg7
Vhttp://dbpedia.org/ontology/Country
p17
sg9
I5355
sg10
g11
sg12
g13
sg14
g16
sa(dp18
g3
VGovernment
p19
sg5
g6
sg7
Vhttp://wibitaxonomy.org/Category%3AGovernment
p20
sg9
I2939
sg10
Vhttp://wibitaxonomy.org/Category%3AFrance
p21
sg12
g13
sg14
Vgovernment
p22
sa(dp23
g3
VFrance
p24
sg5
g6
sg7
Vhttp://dbpedia.org/resource/Category:France
p25
sg9
I1765
sg10
g11
sg12
g13
sg14
Vfrance
p26
sa(dp27
g3
VRepublics
p28
sg5
g6
sg7
Vhttp://dbpedia.org/resource/Category:Republics
p29
sg9
I409
sg10
g11
sg12
g13
sg14
Vrepublic
p30
sa(dp31
g3
VRepublics
p32
sg5
g6
sg7
Vhttp://dbpedia.org/resource/Category:Republics
p33
sg9
I409
sg10
Vhttp://dbpedia.org/resource/Category:France
p34
sg12
g13
sg14
Vrepublic
p35
sa(dp36
g3
VRepublics
p37
sg5
g6
sg7
Vhttp://wibitaxonomy.org/Category%3ARepublics
p38
sg9
I409
sg10
g21
sg12
g13
sg14
Vrepublic
p39
sa(dp40
g3
VWestern Europe
p41
sg5
g6
sg7
Vhttp://dbpedia.org/resource/Category:Western_Europe
p42
sg9
I168
sg10
g11
sg12
g13
sg14
VWestern europe
p43
sa(dp44
g3
VWestern Europe
p45
sg5
g6
sg7
Vhttp://dbpedia.org/resource/Category:Western_Europe
p46
sg9
I168
sg10
g34
sg12
g13
sg14
VWestern europe
p47
sa(dp48
g3
VCountries in Europe
p49
sg5
g6
sg7
Vhttp://dbpedia.org/resource/Category:Countries_in_Europe
p50
sg9
I8
sg10
g11
sg12
g13
sg14
VCountries in europe
p51
sa(dp52
g3
VMember states of the European Union
p53
sg5
g6
sg7
Vhttp://dbpedia.org/resource/Category:Member_states_of_the_European_Union
p54
sg9
I8
sg10
g11
sg12
g13
sg14
VMember states of the European union
p55
sa(dp56
g3
VCountries in Europe
p57
sg5
g6
sg7
Vhttp://dbpedia.org/resource/Category:Countries_in_Europe
p58
sg9
I8
sg10
g34
sg12
g13
sg14
VCountries in europe
p59
sa(dp60
g3
VMember states of the European Union
p61
sg5
g6
sg7
Vhttp://dbpedia.org/resource/Category:Member_states_of_the_European_Union
p62
sg9
I8
sg10
g34
sg12
g13
sg14
VMember states of the European union
p63
sa(dp64
g3
VG8 nations
p65
sg5
g6
sg7
Vhttp://dbpedia.org/resource/Category:G8_nations
p66
sg9
I7
sg10
g11
sg12
g13
sg14
VG8 nation
p67
sa(dp68
g3
Vpopulated place
p69
sg5
g6
sg7
Vhttp://dbpedia.org/ontology/PopulatedPlace
p70
sg9
I2
sg10
g11
sg12
g13
sg14
Vpopulated place
p71
sa(dp72
g3
VLiberal democracies
p73
sg5
g6
sg7
Vhttp://dbpedia.org/resource/Category:Liberal_democracies
p74
sg9
I1
sg10
g11
sg12
g13
sg14
VLiberal democracy
p75
sa(dp76
g3
VG20 nations
p77
sg5
g6
sg7
Vhttp://dbpedia.org/resource/Category:G20_nations
p78
sg9
I1
sg10
g11
sg12
g13
sg14
VG20 nation
p79
sa(dp80
g3
VForms of government
p81
sg5
g6
sg7
Vhttp://wibitaxonomy.org/Category%3AForms_of_government
p82
sg9
I1
sg10
g21
sg12
g13
sg14
VForms of government
p83
sa(dp84
g3
VMember states of the United Nations
p85
sg5
g6
sg7
Vhttp://dbpedia.org/resource/Category:Member_states_of_the_United_Nations
p86
sg9
I0
sg10
g11
sg12
g13
sg14
VMember states of the United nation
p87
sa(dp88
g3
VMember states of the Union for the Mediterranean
p89
sg5
g6
sg7
Vhttp://dbpedia.org/resource/Category:Member_states_of_the_Union_for_the_Mediterranean
p90
sg9
I0
sg10
g11
sg12
g13
sg14
VMember states of the Union for the mediterranean
p91
sa(dp92
g3
VFrench-speaking countries and territories
p93
sg5
g6
sg7
Vhttp://dbpedia.org/resource/Category:French-speaking_countries_and_territories
p94
sg9
I0
sg10
g11
sg12
g13
sg14
VFrench-speaking countries and territory
p95
sa(dp96
g3
VG7 nations
p97
sg5
g6
sg7
Vhttp://dbpedia.org/resource/Category:G7_nations
p98
sg9
I0
sg10
g11
sg12
g13
sg14
VG7 nation
p99
sa(dp100
g3
VMember states of La Francophonie
p101
sg5
g6
sg7
Vhttp://dbpedia.org/resource/Category:Member_states_of_La_Francophonie
p102
sg9
I0
sg10
g11
sg12
g13
sg14
VMember states of La francophonie
p103
sa(dp104
g3
VMember states of NATO
p105
sg5
g6
sg7
Vhttp://dbpedia.org/resource/Category:Member_states_of_NATO
p106
sg9
I0
sg10
g11
sg12
g13
sg14
VMember states of nato
p107
sa(dp108
g3
VMember states of the Council of Europe
p109
sg5
g6
sg7
Vhttp://dbpedia.org/resource/Category:Member_states_of_the_Council_of_Europe
p110
sg9
I0
sg10
g11
sg12
g13
sg14
VMember states of the Council of europe
p111
sa(dp112
g3
VRomance countries and territories
p113
sg5
g6
sg7
Vhttp://dbpedia.org/resource/Category:Romance_countries_and_territories
p114
sg9
I0
sg10
g11
sg12
g13
sg14
VRomance countries and territory
p115
sa(dp116
g3
Nsg5
g6
sg7
Vhttp://dbpedia.org/resource/Category:List_of_Mediterranean_countries
p117
sg9
I0
sg10
g11
sg12
g13
sg14
Nsa(dp118
g3
Nsg5
g6
sg7
Vhttp://dbpedia.org/ontology/Location
p119
sg9
I0
sg10
g11
sg12
g13
sg14
Nsa(dp120
g3
VWikipedia categories named after countries
p121
sg5
g6
sg7
Vhttp://dbpedia.org/resource/Category:Wikipedia_categories_named_after_countries
p122
sg9
I0
sg10
g34
sg12
g13
sg14
VWikipedia categories named after country
p123
sa(dp124
g3
VFrench-speaking countries and territories
p125
sg5
g6
sg7
Vhttp://dbpedia.org/resource/Category:French-speaking_countries_and_territories
p126
sg9
I0
sg10
g34
sg12
g13
sg14
VFrench-speaking countries and territory
p127
sa(dp128
g3
VMember states of La Francophonie
p129
sg5
g6
sg7
Vhttp://dbpedia.org/resource/Category:Member_states_of_La_Francophonie
p130
sg9
I0
sg10
g34
sg12
g13
sg14
VMember states of La francophonie
p131
sa(dp132
g3
VMember states of the Council of Europe
p133
sg5
g6
sg7
Vhttp://dbpedia.org/resource/Category:Member_states_of_the_Council_of_Europe
p134
sg9
I0
sg10
g34
sg12
g13
sg14
VMember states of the Council of europe
p135
sa(dp136
g3
VRomance countries and territories
p137
sg5
g6
sg7
Vhttp://dbpedia.org/resource/Category:Romance_countries_and_territories
p138
sg9
I0
sg10
g34
sg12
g13
sg14
VRomance countries and territory
p139
sa.