(lp1
(dp2
S'generalizedLabel'
p3
Vplace
p4
sS'term'
p5
VFrench Polynesia
p6
sS'generalizedURI'
p7
Vhttp://dbpedia.org/ontology/Place
p8
sS'generalizedFreq'
p9
I6273
sS'subjectURI'
p10
Vhttp://dbpedia.org/resource/French_Polynesia
p11
sS'inputType'
p12
VLocation
p13
sS'generalizedLemma'
p14
g4
sa(dp15
g3
Vcountry
p16
sg5
g6
sg7
Vhttp://dbpedia.org/ontology/Country
p17
sg9
I5355
sg10
g11
sg12
g13
sg14
g16
sa(dp18
g3
VPolynesia
p19
sg5
g6
sg7
Vhttp://dbpedia.org/resource/Category:Polynesia
p20
sg9
I62
sg10
g11
sg12
g13
sg14
Vpolynesia
p21
sa(dp22
g3
VPolynesia
p23
sg5
g6
sg7
Vhttp://dbpedia.org/resource/Category:Polynesia
p24
sg9
I62
sg10
Vhttp://dbpedia.org/resource/Category:French_Polynesia
p25
sg12
g13
sg14
Vpolynesia
p26
sa(dp27
g3
VFrench Polynesia
p28
sg5
g6
sg7
Vhttp://dbpedia.org/resource/Category:French_Polynesia
p29
sg9
I57
sg10
g11
sg12
g13
sg14
VFrench polynesia
p30
sa(dp31
g3
VIsland countries
p32
sg5
g6
sg7
Vhttp://dbpedia.org/resource/Category:Island_countries
p33
sg9
I5
sg10
g11
sg12
g13
sg14
VIsland country
p34
sa(dp35
g3
VIsland countries
p36
sg5
g6
sg7
Vhttp://dbpedia.org/resource/Category:Island_countries
p37
sg9
I5
sg10
g25
sg12
g13
sg14
VIsland country
p38
sa(dp39
g3
Vpopulated place
p40
sg5
g6
sg7
Vhttp://dbpedia.org/ontology/PopulatedPlace
p41
sg9
I2
sg10
g11
sg12
g13
sg14
Vpopulated place
p42
sa(dp43
g3
VStates and territories established in 1842
p44
sg5
g6
sg7
Vhttp://dbpedia.org/resource/Category:States_and_territories_established_in_1842
p45
sg9
I0
sg10
g11
sg12
g13
sg14
VStates and territories established in 1842
p46
sa(dp47
g3
VOverseas departments, collectivities and territories of France
p48
sg5
g6
sg7
Vhttp://dbpedia.org/resource/Category:Overseas_departments,_collectivities_and_territories_of_France
p49
sg9
I0
sg10
g11
sg12
g13
sg14
VOverseas departments, collectivities and territories of france
p50
sa(dp51
g3
VSpecial territories of the European Union
p52
sg5
g6
sg7
Vhttp://dbpedia.org/resource/Category:Special_territories_of_the_European_Union
p53
sg9
I0
sg10
g11
sg12
g13
sg14
VSpecial territories of the European union
p54
sa(dp55
g3
VFrench-speaking countries and territories
p56
sg5
g6
sg7
Vhttp://dbpedia.org/resource/Category:French-speaking_countries_and_territories
p57
sg9
I0
sg10
g11
sg12
g13
sg14
VFrench-speaking countries and territory
p58
sa(dp59
g3
VEuropean colonisation in Oceania
p60
sg5
g6
sg7
Vhttp://dbpedia.org/resource/Category:European_colonisation_in_Oceania
p61
sg9
I0
sg10
g11
sg12
g13
sg14
VEuropean colonisation in oceania
p62
sa(dp63
g3
V1842 establishments in the French colonial empire
p64
sg5
g6
sg7
Vhttp://dbpedia.org/resource/Category:1842_establishments_in_the_French_colonial_empire
p65
sg9
I0
sg10
g11
sg12
g13
sg14
V1842 establishments in the French colonial empire
p66
sa(dp67
g3
V1958 establishments in the French Community
p68
sg5
g6
sg7
Vhttp://dbpedia.org/resource/Category:1958_establishments_in_the_French_Community
p69
sg9
I0
sg10
g11
sg12
g13
sg14
V1958 establishments in the French community
p70
sa(dp71
g3
V1946 disestablishments in the French colonial empire
p72
sg5
g6
sg7
Vhttp://dbpedia.org/resource/Category:1946_disestablishments_in_the_French_colonial_empire
p73
sg9
I0
sg10
g11
sg12
g13
sg14
V1946 disestablishments in the French colonial empire
p74
sa(dp75
g3
V1946 establishments in the French Union
p76
sg5
g6
sg7
Vhttp://dbpedia.org/resource/Category:1946_establishments_in_the_French_Union
p77
sg9
I0
sg10
g11
sg12
g13
sg14
V1946 establishments in the French union
p78
sa(dp79
g3
V1958 disestablishments in the French Union
p80
sg5
g6
sg7
Vhttp://dbpedia.org/resource/Category:1958_disestablishments_in_the_French_Union
p81
sg9
I0
sg10
g11
sg12
g13
sg14
V1958 disestablishments in the French union
p82
sa(dp83
g3
Nsg5
g6
sg7
Vhttp://dbpedia.org/ontology/Location
p84
sg9
I0
sg10
g11
sg12
g13
sg14
Nsa(dp85
g3
VStates and territories established in 1842
p86
sg5
g6
sg7
Vhttp://dbpedia.org/resource/Category:States_and_territories_established_in_1842
p87
sg9
I0
sg10
g25
sg12
g13
sg14
VStates and territories established in 1842
p88
sa(dp89
g3
VFrench colonisation in Oceania
p90
sg5
g6
sg7
Vhttp://dbpedia.org/resource/Category:French_colonisation_in_Oceania
p91
sg9
I0
sg10
g25
sg12
g13
sg14
VFrench colonisation in oceania
p92
sa(dp93
g3
VOverseas departments, collectivities and territories of France
p94
sg5
g6
sg7
Vhttp://dbpedia.org/resource/Category:Overseas_departments,_collectivities_and_territories_of_France
p95
sg9
I0
sg10
g25
sg12
g13
sg14
VOverseas departments, collectivities and territories of france
p96
sa(dp97
g3
VDependent territories in Oceania
p98
sg5
g6
sg7
Vhttp://dbpedia.org/resource/Category:Dependent_territories_in_Oceania
p99
sg9
I0
sg10
g25
sg12
g13
sg14
VDependent territories in oceania
p100
sa(dp101
g3
VWikipedia categories named after dependent territories
p102
sg5
g6
sg7
Vhttp://dbpedia.org/resource/Category:Wikipedia_categories_named_after_dependent_territories
p103
sg9
I0
sg10
g25
sg12
g13
sg14
VWikipedia categories named after dependent territory
p104
sa(dp105
g3
VSpecial territories of the European Union
p106
sg5
g6
sg7
Vhttp://dbpedia.org/resource/Category:Special_territories_of_the_European_Union
p107
sg9
I0
sg10
g25
sg12
g13
sg14
VSpecial territories of the European union
p108
sa(dp109
g3
V1842 establishments in the French colonial empire
p110
sg5
g6
sg7
Vhttp://dbpedia.org/resource/Category:1842_establishments_in_the_French_colonial_empire
p111
sg9
I0
sg10
g25
sg12
g13
sg14
V1842 establishments in the French colonial empire
p112
sa(dp113
g3
V1958 establishments in the French Community
p114
sg5
g6
sg7
Vhttp://dbpedia.org/resource/Category:1958_establishments_in_the_French_Community
p115
sg9
I0
sg10
g25
sg12
g13
sg14
V1958 establishments in the French community
p116
sa(dp117
g3
V1946 disestablishments in the French colonial empire
p118
sg5
g6
sg7
Vhttp://dbpedia.org/resource/Category:1946_disestablishments_in_the_French_colonial_empire
p119
sg9
I0
sg10
g25
sg12
g13
sg14
V1946 disestablishments in the French colonial empire
p120
sa(dp121
g3
V1946 establishments in the French Union
p122
sg5
g6
sg7
Vhttp://dbpedia.org/resource/Category:1946_establishments_in_the_French_Union
p123
sg9
I0
sg10
g25
sg12
g13
sg14
V1946 establishments in the French union
p124
sa(dp125
g3
V1958 disestablishments in the French Union
p126
sg5
g6
sg7
Vhttp://dbpedia.org/resource/Category:1958_disestablishments_in_the_French_Union
p127
sg9
I0
sg10
g25
sg12
g13
sg14
V1958 disestablishments in the French union
p128
sa(dp129
g3
VOverseas country of France
p130
sg5
g6
sg7
Vhttp://wibitaxonomy.org/Overseas_country_of_France
p131
sg9
I0
sg10
Vhttp://wibitaxonomy.org/French_Polynesia
p132
sg12
g13
sg14
VOverseas country of france
p133
sa(dp134
g3
VOverseas departments%5C%2C collectivities and territories of France
p135
sg5
g6
sg7
Vhttp://wibitaxonomy.org/Category%3AOverseas_departments%5C%2C_collectivities_and_territories_of_France
p136
sg9
I0
sg10
Vhttp://wibitaxonomy.org/Category%3AFrench_Polynesia
p137
sg12
g13
sg14
VOverseas departments%5C%2C collectivities and territories of france
p138
sa(dp139
g3
VSubdivisions of France
p140
sg5
g6
sg7
Vhttp://wibitaxonomy.org/Category%3ASubdivisions_of_France
p141
sg9
I0
sg10
g137
sg12
g13
sg14
VSubdivisions of france
p142
sa(dp143
g3
VSubdivisions by country
p144
sg5
g6
sg7
Vhttp://wibitaxonomy.org/Category%3ASubdivisions_by_country
p145
sg9
I0
sg10
g137
sg12
g13
sg14
VSubdivisions by country
p146
sa.