(lp1
(dp2
S'generalizedLabel'
p3
VName
p4
sS'term'
p5
Vfucose
p6
sS'generalizedURI'
p7
Vhttp://wibitaxonomy.org/Name
p8
sS'generalizedFreq'
p9
I5205
sS'subjectURI'
p10
Vhttp://wibitaxonomy.org/Fucose
p11
sS'inputType'
p12
VCompound
p13
sS'generalizedLemma'
p14
Vname
p15
sa(dp16
g3
VSugar
p17
sg5
g6
sg7
Vhttp://wibitaxonomy.org/Sugar
p18
sg9
I1682
sg10
g11
sg12
g13
sg14
Vsugar
p19
sa(dp20
g3
Vchemical compound
p21
sg5
g6
sg7
Vhttp://dbpedia.org/ontology/ChemicalCompound
p22
sg9
I76
sg10
Vhttp://dbpedia.org/resource/Fucose
p23
sg12
g13
sg14
Vchemical compound
p24
sa(dp25
g3
Vchemical substance
p26
sg5
g6
sg7
Vhttp://dbpedia.org/ontology/ChemicalSubstance
p27
sg9
I6
sg10
g23
sg12
g13
sg14
Vchemical substance
p28
sa(dp29
g3
VDeoxy sugars
p30
sg5
g6
sg7
Vhttp://dbpedia.org/resource/Category:Deoxy_sugars
p31
sg9
I1
sg10
g23
sg12
g13
sg14
VDeoxy sugar
p32
sa(dp33
g3
VDeoxy sugar
p34
sg5
g6
sg7
Vhttp://wibitaxonomy.org/Deoxy_sugar
p35
sg9
I1
sg10
g11
sg12
g13
sg14
VDeoxy sugar
p36
sa(dp37
g3
VAldohexoses
p38
sg5
g6
sg7
Vhttp://dbpedia.org/resource/Category:Aldohexoses
p39
sg9
I0
sg10
g23
sg12
g13
sg14
Valdohexose
p40
sa.