(lp1
(dp2
S'generalizedLabel'
p3
VCarbohydrate
p4
sS'term'
p5
Vgalactose
p6
sS'generalizedURI'
p7
Vhttp://wibitaxonomy.org/Carbohydrate
p8
sS'generalizedFreq'
p9
I1353
sS'subjectURI'
p10
Vhttp://wibitaxonomy.org/Galactose
p11
sS'inputType'
p12
VCompound
p13
sS'generalizedLemma'
p14
Vcarbohydrate
p15
sa(dp16
g3
VOrganic compound
p17
sg5
g6
sg7
Vhttp://wibitaxonomy.org/Organic_compound
p18
sg9
I774
sg10
g11
sg12
g13
sg14
VOrganic compound
p19
sa(dp20
g3
VNutrition
p21
sg5
g6
sg7
Vhttp://dbpedia.org/resource/Category:Nutrition
p22
sg9
I620
sg10
Vhttp://dbpedia.org/resource/Galactose
p23
sg12
g13
sg14
Vnutrition
p24
sa(dp25
g3
VGalactose
p26
sg5
g6
sg7
Vhttp://dbpedia.org/resource/Category:Galactose
p27
sg9
I370
sg10
g23
sg12
g13
sg14
Vgalactose
p28
sa(dp29
g3
VHexoses
p30
sg5
g6
sg7
Vhttp://wibitaxonomy.org/Category%3AHexoses
p31
sg9
I117
sg10
Vhttp://wibitaxonomy.org/Category%3AGalactose
p32
sg12
g13
sg14
Vhexose
p33
sa(dp34
g3
Vchemical compound
p35
sg5
g6
sg7
Vhttp://dbpedia.org/ontology/ChemicalCompound
p36
sg9
I76
sg10
g23
sg12
g13
sg14
Vchemical compound
p37
sa(dp38
g3
VSweeteners
p39
sg5
g6
sg7
Vhttp://dbpedia.org/resource/Category:Sweeteners
p40
sg9
I61
sg10
g23
sg12
g13
sg14
Vsweetener
p41
sa(dp42
g3
VMonosaccharides
p43
sg5
g6
sg7
Vhttp://wibitaxonomy.org/Category%3AMonosaccharides
p44
sg9
I52
sg10
g32
sg12
g13
sg14
Vmonosaccharide
p45
sa(dp46
g3
Vchemical substance
p47
sg5
g6
sg7
Vhttp://dbpedia.org/ontology/ChemicalSubstance
p48
sg9
I6
sg10
g23
sg12
g13
sg14
Vchemical substance
p49
sa(dp50
g3
VAldohexoses
p51
sg5
g6
sg7
Vhttp://dbpedia.org/resource/Category:Aldohexoses
p52
sg9
I0
sg10
Vhttp://dbpedia.org/resource/Category:Galactose
p53
sg12
g13
sg14
Valdohexose
p54
sa(dp55
g3
VAldohexoses
p56
sg5
g6
sg7
Vhttp://wibitaxonomy.org/Category%3AAldohexoses
p57
sg9
I0
sg10
g32
sg12
g13
sg14
Valdohexose
p58
sa.