(lp1
(dp2
S'generalizedLabel'
p3
VMolecule
p4
sS'term'
p5
Vglutamine
p6
sS'generalizedURI'
p7
Vhttp://wibitaxonomy.org/Molecule
p8
sS'generalizedFreq'
p9
I6105
sS'subjectURI'
p10
Vhttp://wibitaxonomy.org/Glutamine
p11
sS'inputType'
p12
VCompound
p13
sS'generalizedLemma'
p14
Vmolecule
p15
sa(dp16
g3
VAmino acid
p17
sg5
g6
sg7
Vhttp://wibitaxonomy.org/Amino_acid
p18
sg9
I4139
sg10
g11
sg12
g13
sg14
VAmino acid
p19
sa(dp20
g3
VAtom
p21
sg5
g6
sg7
Vhttp://wibitaxonomy.org/Atom
p22
sg9
I1894
sg10
g11
sg12
g13
sg14
Vatom
p23
sa(dp24
g3
VAmides
p25
sg5
g6
sg7
Vhttp://dbpedia.org/resource/Category:Amides
p26
sg9
I178
sg10
Vhttp://dbpedia.org/resource/Glutamine
p27
sg12
g13
sg14
Vamide
p28
sa(dp29
g3
Vchemical compound
p30
sg5
g6
sg7
Vhttp://dbpedia.org/ontology/ChemicalCompound
p31
sg9
I76
sg10
g27
sg12
g13
sg14
Vchemical compound
p32
sa(dp33
g3
VDietary supplements
p34
sg5
g6
sg7
Vhttp://dbpedia.org/resource/Category:Dietary_supplements
p35
sg9
I9
sg10
g27
sg12
g13
sg14
VDietary supplement
p36
sa(dp37
g3
VProteinogenic amino acids
p38
sg5
g6
sg7
Vhttp://dbpedia.org/resource/Category:Proteinogenic_amino_acids
p39
sg9
I7
sg10
g27
sg12
g13
sg14
VProteinogenic amino acid
p40
sa(dp41
g3
Vchemical substance
p42
sg5
g6
sg7
Vhttp://dbpedia.org/ontology/ChemicalSubstance
p43
sg9
I6
sg10
g27
sg12
g13
sg14
Vchemical substance
p44
sa(dp45
g3
VGlucogenic amino acids
p46
sg5
g6
sg7
Vhttp://dbpedia.org/resource/Category:Glucogenic_amino_acids
p47
sg9
I0
sg10
g27
sg12
g13
sg14
VGlucogenic amino acid
p48
sa.