(lp1
(dp2
S'generalizedLabel'
p3
VSystem
p4
sS'term'
p5
VGreat Barrier Reef
p6
sS'generalizedURI'
p7
Vhttp://wibitaxonomy.org/System
p8
sS'generalizedFreq'
p9
I17589
sS'subjectURI'
p10
Vhttp://wibitaxonomy.org/Great_Barrier_Reef
p11
sS'inputType'
p12
VLocation
p13
sS'generalizedLemma'
p14
Vsystem
p15
sa(dp16
g3
Vplace
p17
sg5
g6
sg7
Vhttp://dbpedia.org/ontology/Place
p18
sg9
I6273
sg10
Vhttp://dbpedia.org/resource/Great_Barrier_Reef
p19
sg12
g13
sg14
g17
sa(dp20
g3
VCoral reefs
p21
sg5
g6
sg7
Vhttp://dbpedia.org/resource/Category:Coral_reefs
p22
sg9
I2838
sg10
Vhttp://dbpedia.org/resource/Category:Great_Barrier_Reef
p23
sg12
g13
sg14
VCoral reef
p24
sa(dp25
g3
VGreat Barrier Reef
p26
sg5
g6
sg7
Vhttp://dbpedia.org/resource/Category:Great_Barrier_Reef
p27
sg9
I507
sg10
g19
sg12
g13
sg14
VGreat Barrier reef
p28
sa(dp29
g3
VGalaxy
p30
sg5
g6
sg7
Vhttp://wibitaxonomy.org/Galaxy
p31
sg9
I97
sg10
g11
sg12
g13
sg14
Vgalaxy
p32
sa(dp33
g3
VCoral Sea
p34
sg5
g6
sg7
Vhttp://dbpedia.org/resource/Category:Coral_Sea
p35
sg9
I32
sg10
g19
sg12
g13
sg14
VCoral sea
p36
sa(dp37
g3
VWorld Heritage Site
p38
sg5
g6
sg7
Vhttp://dbpedia.org/ontology/WorldHeritageSite
p39
sg9
I7
sg10
g19
sg12
g13
sg14
VWorld Heritage site
p40
sa(dp41
g3
VWorld Heritage Sites
p42
sg5
g6
sg7
Vhttp://wibitaxonomy.org/Category%3AWorld_Heritage_Sites
p43
sg9
I7
sg10
Vhttp://wibitaxonomy.org/Category%3AGreat_Barrier_Reef
p44
sg12
g13
sg14
VWorld Heritage site
p45
sa(dp46
g3
VMarine ecoregions
p47
sg5
g6
sg7
Vhttp://dbpedia.org/resource/Category:Marine_ecoregions
p48
sg9
I6
sg10
g19
sg12
g13
sg14
VMarine ecoregions
p49
sa(dp50
g3
VPhysiographic provinces
p51
sg5
g6
sg7
Vhttp://dbpedia.org/resource/Category:Physiographic_provinces
p52
sg9
I5
sg10
g19
sg12
g13
sg14
VPhysiographic province
p53
sa(dp54
g3
VReefs of Australia
p55
sg5
g6
sg7
Vhttp://dbpedia.org/resource/Category:Reefs_of_Australia
p56
sg9
I1
sg10
g19
sg12
g13
sg14
VReefs of australia
p57
sa(dp58
g3
VReefs of Australia
p59
sg5
g6
sg7
Vhttp://dbpedia.org/resource/Category:Reefs_of_Australia
p60
sg9
I1
sg10
g23
sg12
g13
sg14
VReefs of australia
p61
sa(dp62
g3
VUnderwater diving sites in Australia
p63
sg5
g6
sg7
Vhttp://dbpedia.org/resource/Category:Underwater_diving_sites_in_Australia
p64
sg9
I0
sg10
g19
sg12
g13
sg14
VUnderwater diving sites in australia
p65
sa(dp66
g3
VVisitor attractions in Queensland
p67
sg5
g6
sg7
Vhttp://dbpedia.org/resource/Category:Visitor_attractions_in_Queensland
p68
sg9
I0
sg10
g19
sg12
g13
sg14
VVisitor attractions in queensland
p69
sa(dp70
g3
VAustralian National Heritage List
p71
sg5
g6
sg7
Vhttp://dbpedia.org/resource/Category:Australian_National_Heritage_List
p72
sg9
I0
sg10
g19
sg12
g13
sg14
VAustralian National Heritage list
p73
sa(dp74
g3
VWorld Heritage Sites in Australia
p75
sg5
g6
sg7
Vhttp://dbpedia.org/resource/Category:World_Heritage_Sites_in_Australia
p76
sg9
I0
sg10
g19
sg12
g13
sg14
VWorld Heritage Sites in australia
p77
sa(dp78
g3
Nsg5
g6
sg7
Vhttp://dbpedia.org/ontology/Location
p79
sg9
I0
sg10
g19
sg12
g13
sg14
Nsa(dp80
g3
VVisitor attractions in Queensland
p81
sg5
g6
sg7
Vhttp://dbpedia.org/resource/Category:Visitor_attractions_in_Queensland
p82
sg9
I0
sg10
g23
sg12
g13
sg14
VVisitor attractions in queensland
p83
sa(dp84
g3
VRegions of Queensland
p85
sg5
g6
sg7
Vhttp://dbpedia.org/resource/Category:Regions_of_Queensland
p86
sg9
I0
sg10
g23
sg12
g13
sg14
VRegions of queensland
p87
sa(dp88
g3
VReefs of the Pacific Ocean
p89
sg5
g6
sg7
Vhttp://dbpedia.org/resource/Category:Reefs_of_the_Pacific_Ocean
p90
sg9
I0
sg10
g23
sg12
g13
sg14
VReefs of the Pacific ocean
p91
sa(dp92
g3
VWikipedia categories named after landforms
p93
sg5
g6
sg7
Vhttp://dbpedia.org/resource/Category:Wikipedia_categories_named_after_landforms
p94
sg9
I0
sg10
g23
sg12
g13
sg14
VWikipedia categories named after landforms
p95
sa(dp96
g3
VWorld Heritage Sites in Australia
p97
sg5
g6
sg7
Vhttp://dbpedia.org/resource/Category:World_Heritage_Sites_in_Australia
p98
sg9
I0
sg10
g23
sg12
g13
sg14
VWorld Heritage Sites in australia
p99
sa(dp100
g3
VInteracting galaxy
p101
sg5
g6
sg7
Vhttp://wibitaxonomy.org/Interacting_galaxy
p102
sg9
I0
sg10
g11
sg12
g13
sg14
VInteracting galaxy
p103
sa(dp104
g3
VWorld Heritage Sites in Australia
p105
sg5
g6
sg7
Vhttp://wibitaxonomy.org/Category%3AWorld_Heritage_Sites_in_Australia
p106
sg9
I0
sg10
g44
sg12
g13
sg14
VWorld Heritage Sites in australia
p107
sa(dp108
g3
VWorld Heritage Sites by country
p109
sg5
g6
sg7
Vhttp://wibitaxonomy.org/Category%3AWorld_Heritage_Sites_by_country
p110
sg9
I0
sg10
g44
sg12
g13
sg14
VWorld Heritage Sites by country
p111
sa.