(lp1
(dp2
S'generalizedLabel'
p3
VGulfs of the United States
p4
sS'term'
p5
VGulf of Alaska
p6
sS'generalizedURI'
p7
Vhttp://dbpedia.org/resource/Category:Gulfs_of_the_United_States
p8
sS'generalizedFreq'
p9
I0
sS'subjectURI'
p10
Vhttp://dbpedia.org/resource/Gulf_of_Alaska
p11
sS'inputType'
p12
VLocation
p13
sS'generalizedLemma'
p14
VGulfs of the United state
p15
sa(dp16
g3
VBodies of water of Alaska
p17
sg5
g6
sg7
Vhttp://dbpedia.org/resource/Category:Bodies_of_water_of_Alaska
p18
sg9
I0
sg10
g11
sg12
g13
sg14
VBodies of water of alaska
p19
sa(dp20
g3
VGulfs of the Pacific Ocean
p21
sg5
g6
sg7
Vhttp://dbpedia.org/resource/Category:Gulfs_of_the_Pacific_Ocean
p22
sg9
I0
sg10
g11
sg12
g13
sg14
VGulfs of the Pacific ocean
p23
sa(dp24
g3
VArm %5C%28geography%5C%29
p25
sg5
g6
sg7
Vhttp://wibitaxonomy.org/Arm_%5C%28geography%5C%29
p26
sg9
I0
sg10
Vhttp://wibitaxonomy.org/Gulf_of_Alaska
p27
sg12
g13
sg14
VArm %5c%28geography%5c%29
p28
sa(dp29
g3
VField extension
p30
sg5
g6
sg7
Vhttp://wibitaxonomy.org/Field_extension
p31
sg9
I0
sg10
g27
sg12
g13
sg14
VField extension
p32
sa(dp33
g3
VCategory %5C%28mathematics%5C%29
p34
sg5
g6
sg7
Vhttp://wibitaxonomy.org/Category_%5C%28mathematics%5C%29
p35
sg9
I0
sg10
g27
sg12
g13
sg14
VCategory %5c%28mathematics%5c%29
p36
sa.