(lp1
(dp2
S'generalizedLabel'
p3
VMatter
p4
sS'term'
p5
Vhydrogen
p6
sS'generalizedURI'
p7
Vhttp://wibitaxonomy.org/Matter
p8
sS'generalizedFreq'
p9
I7091
sS'subjectURI'
p10
Vhttp://wibitaxonomy.org/Hydrogen
p11
sS'inputType'
p12
VCompound
p13
sS'generalizedLemma'
p14
Vmatter
p15
sa(dp16
g3
VHydrogen
p17
sg5
g6
sg7
Vhttp://dbpedia.org/resource/Category:Hydrogen
p18
sg9
I4674
sg10
Vhttp://dbpedia.org/resource/Hydrogen
p19
sg12
g13
sg14
Vhydrogen
p20
sa(dp21
g3
VChemistry
p22
sg5
g6
sg7
Vhttp://wibitaxonomy.org/Category%3AChemistry
p23
sg9
I4471
sg10
Vhttp://wibitaxonomy.org/Category%3AHydrogen
p24
sg12
g13
sg14
Vchemistry
p25
sa(dp26
g3
VAnions
p27
sg5
g6
sg7
Vhttp://dbpedia.org/resource/Category:Anions
p28
sg9
I558
sg10
Vhttp://dbpedia.org/resource/Bifluoride
p29
sg12
g13
sg14
Vanion
p30
sa(dp31
g3
VFluorides
p32
sg5
g6
sg7
Vhttp://dbpedia.org/resource/Category:Fluorides
p33
sg9
I336
sg10
g29
sg12
g13
sg14
Vfluoride
p34
sa(dp35
g3
Vchemical compound
p36
sg5
g6
sg7
Vhttp://dbpedia.org/ontology/ChemicalCompound
p37
sg9
I76
sg10
g29
sg12
g13
sg14
Vchemical compound
p38
sa(dp39
g3
VReducing agents
p40
sg5
g6
sg7
Vhttp://dbpedia.org/resource/Category:Reducing_agents
p41
sg9
I55
sg10
g19
sg12
g13
sg14
VReducing agent
p42
sa(dp43
g3
VRefrigerants
p44
sg5
g6
sg7
Vhttp://dbpedia.org/resource/Category:Refrigerants
p45
sg9
I37
sg10
g19
sg12
g13
sg14
Vrefrigerant
p46
sa(dp47
g3
VChemical elements
p48
sg5
g6
sg7
Vhttp://dbpedia.org/resource/Category:Chemical_elements
p49
sg9
I29
sg10
Vhttp://dbpedia.org/resource/Category:Hydrogen
p50
sg12
g13
sg14
VChemical element
p51
sa(dp52
g3
VChemical elements
p53
sg5
g6
sg7
Vhttp://dbpedia.org/resource/Category:Chemical_elements
p54
sg9
I29
sg10
g19
sg12
g13
sg14
VChemical element
p55
sa(dp56
g3
VChemical element
p57
sg5
g6
sg7
Vhttp://wibitaxonomy.org/Chemical_element
p58
sg9
I29
sg10
g11
sg12
g13
sg14
VChemical element
p59
sa(dp60
g3
VChemical elements
p61
sg5
g6
sg7
Vhttp://wibitaxonomy.org/Category%3AChemical_elements
p62
sg9
I29
sg10
g24
sg12
g13
sg14
VChemical element
p63
sa(dp64
g3
VAlternative fuels
p65
sg5
g6
sg7
Vhttp://dbpedia.org/resource/Category:Alternative_fuels
p66
sg9
I16
sg10
g50
sg12
g13
sg14
VAlternative fuel
p67
sa(dp68
g3
Vchemical substance
p69
sg5
g6
sg7
Vhttp://dbpedia.org/ontology/ChemicalSubstance
p70
sg9
I6
sg10
g29
sg12
g13
sg14
Vchemical substance
p71
sa(dp72
g3
VChemical substance
p73
sg5
g6
sg7
Vhttp://wibitaxonomy.org/Chemical_substance
p74
sg9
I6
sg10
g11
sg12
g13
sg14
VChemical substance
p75
sa(dp76
g3
VChemical substances
p77
sg5
g6
sg7
Vhttp://wibitaxonomy.org/Category%3AChemical_substances
p78
sg9
I6
sg10
g24
sg12
g13
sg14
VChemical substance
p79
sa(dp80
g3
VDiatomic nonmetals
p81
sg5
g6
sg7
Vhttp://dbpedia.org/resource/Category:Diatomic_nonmetals
p82
sg9
I0
sg10
g50
sg12
g13
sg14
VDiatomic nonmetal
p83
sa(dp84
g3
VWikipedia categories named after chemical elements
p85
sg5
g6
sg7
Vhttp://dbpedia.org/resource/Category:Wikipedia_categories_named_after_chemical_elements
p86
sg9
I0
sg10
g50
sg12
g13
sg14
VWikipedia categories named after chemical element
p87
sa(dp88
g3
VDiatomic nonmetals
p89
sg5
g6
sg7
Vhttp://dbpedia.org/resource/Category:Diatomic_nonmetals
p90
sg9
I0
sg10
g19
sg12
g13
sg14
VDiatomic nonmetal
p91
sa(dp92
g3
VBiology and pharmacology of chemical elements
p93
sg5
g6
sg7
Vhttp://dbpedia.org/resource/Category:Biology_and_pharmacology_of_chemical_elements
p94
sg9
I0
sg10
g19
sg12
g13
sg14
VBiology and pharmacology of chemical element
p95
sa(dp96
g3
VAirship technology
p97
sg5
g6
sg7
Vhttp://dbpedia.org/resource/Category:Airship_technology
p98
sg9
I0
sg10
g19
sg12
g13
sg14
VAirship technology
p99
sa(dp100
g3
VNuclear fusion fuels
p101
sg5
g6
sg7
Vhttp://dbpedia.org/resource/Category:Nuclear_fusion_fuels
p102
sg9
I0
sg10
g19
sg12
g13
sg14
VNuclear fusion fuel
p103
sa(dp104
g3
VGaseous signaling molecules
p105
sg5
g6
sg7
Vhttp://dbpedia.org/resource/Category:Gaseous_signaling_molecules
p106
sg9
I0
sg10
g19
sg12
g13
sg14
VGaseous signaling molecule
p107
sa.