(lp1
(dp2
S'generalizedLabel'
p3
VIron
p4
sS'term'
p5
Viron
p6
sS'generalizedURI'
p7
Vhttp://dbpedia.org/resource/Category:Iron
p8
sS'generalizedFreq'
p9
I8075
sS'subjectURI'
p10
Vhttp://dbpedia.org/resource/Iron
p11
sS'inputType'
p12
VCompound
p13
sS'generalizedLemma'
p14
Viron
p15
sa(dp16
g3
VMatter
p17
sg5
g6
sg7
Vhttp://wibitaxonomy.org/Matter
p18
sg9
I7091
sg10
Vhttp://wibitaxonomy.org/Iron
p19
sg12
g13
sg14
Vmatter
p20
sa(dp21
g3
VMetals
p22
sg5
g6
sg7
Vhttp://dbpedia.org/resource/Category:Metals
p23
sg9
I5195
sg10
Vhttp://dbpedia.org/resource/Category:Iron
p24
sg12
g13
sg14
Vmetal
p25
sa(dp26
g3
VChemistry
p27
sg5
g6
sg7
Vhttp://wibitaxonomy.org/Category%3AChemistry
p28
sg9
I4471
sg10
Vhttp://wibitaxonomy.org/Category%3AIron
p29
sg12
g13
sg14
Vchemistry
p30
sa(dp31
g3
VCoefficient
p32
sg5
g6
sg7
Vhttp://wibitaxonomy.org/Coefficient
p33
sg9
I4073
sg10
g19
sg12
g13
sg14
Vcoefficient
p34
sa(dp35
g3
VTransition metals
p36
sg5
g6
sg7
Vhttp://dbpedia.org/resource/Category:Transition_metals
p37
sg9
I193
sg10
g11
sg12
g13
sg14
VTransition metal
p38
sa(dp39
g3
VTransition metals
p40
sg5
g6
sg7
Vhttp://dbpedia.org/resource/Category:Transition_metals
p41
sg9
I193
sg10
g24
sg12
g13
sg14
VTransition metal
p42
sa(dp43
g3
VChemical elements
p44
sg5
g6
sg7
Vhttp://dbpedia.org/resource/Category:Chemical_elements
p45
sg9
I29
sg10
g11
sg12
g13
sg14
VChemical element
p46
sa(dp47
g3
VChemical elements
p48
sg5
g6
sg7
Vhttp://dbpedia.org/resource/Category:Chemical_elements
p49
sg9
I29
sg10
g24
sg12
g13
sg14
VChemical element
p50
sa(dp51
g3
VChemical element
p52
sg5
g6
sg7
Vhttp://wibitaxonomy.org/Chemical_element
p53
sg9
I29
sg10
g19
sg12
g13
sg14
VChemical element
p54
sa(dp55
g3
VChemical elements
p56
sg5
g6
sg7
Vhttp://wibitaxonomy.org/Category%3AChemical_elements
p57
sg9
I29
sg10
g29
sg12
g13
sg14
VChemical element
p58
sa(dp59
g3
VBuilding materials
p60
sg5
g6
sg7
Vhttp://dbpedia.org/resource/Category:Building_materials
p61
sg9
I19
sg10
g11
sg12
g13
sg14
VBuilding material
p62
sa(dp63
g3
VAtomic number
p64
sg5
g6
sg7
Vhttp://wibitaxonomy.org/Atomic_number
p65
sg9
I9
sg10
g19
sg12
g13
sg14
VAtomic number
p66
sa(dp67
g3
VChemical substance
p68
sg5
g6
sg7
Vhttp://wibitaxonomy.org/Chemical_substance
p69
sg9
I6
sg10
g19
sg12
g13
sg14
VChemical substance
p70
sa(dp71
g3
VChemical substances
p72
sg5
g6
sg7
Vhttp://wibitaxonomy.org/Category%3AChemical_substances
p73
sg9
I6
sg10
g29
sg12
g13
sg14
VChemical substance
p74
sa(dp75
g3
VFerromagnetic materials
p76
sg5
g6
sg7
Vhttp://dbpedia.org/resource/Category:Ferromagnetic_materials
p77
sg9
I2
sg10
g11
sg12
g13
sg14
VFerromagnetic material
p78
sa(dp79
g3
VCharge number
p80
sg5
g6
sg7
Vhttp://wibitaxonomy.org/Charge_number
p81
sg9
I1
sg10
g19
sg12
g13
sg14
VCharge number
p82
sa(dp83
g3
VBiology and pharmacology of chemical elements
p84
sg5
g6
sg7
Vhttp://dbpedia.org/resource/Category:Biology_and_pharmacology_of_chemical_elements
p85
sg9
I0
sg10
g11
sg12
g13
sg14
VBiology and pharmacology of chemical element
p86
sa(dp87
g3
VDietary minerals
p88
sg5
g6
sg7
Vhttp://dbpedia.org/resource/Category:Dietary_minerals
p89
sg9
I0
sg10
g11
sg12
g13
sg14
VDietary mineral
p90
sa(dp91
g3
VCubic minerals
p92
sg5
g6
sg7
Vhttp://dbpedia.org/resource/Category:Cubic_minerals
p93
sg9
I0
sg10
g11
sg12
g13
sg14
VCubic mineral
p94
sa(dp95
g3
VPyrotechnic fuels
p96
sg5
g6
sg7
Vhttp://dbpedia.org/resource/Category:Pyrotechnic_fuels
p97
sg9
I0
sg10
g11
sg12
g13
sg14
VPyrotechnic fuel
p98
sa(dp99
g3
VWikipedia categories named after chemical elements
p100
sg5
g6
sg7
Vhttp://dbpedia.org/resource/Category:Wikipedia_categories_named_after_chemical_elements
p101
sg9
I0
sg10
g24
sg12
g13
sg14
VWikipedia categories named after chemical element
p102
sa.