(lp1
(dp2
S'generalizedLabel'
p3
Vplace
p4
sS'term'
p5
VIsrael
p6
sS'generalizedURI'
p7
Vhttp://dbpedia.org/ontology/Place
p8
sS'generalizedFreq'
p9
I6273
sS'subjectURI'
p10
Vhttp://dbpedia.org/resource/Israel
p11
sS'inputType'
p12
VLocation
p13
sS'generalizedLemma'
p14
g4
sa(dp15
g3
Vcountry
p16
sg5
g6
sg7
Vhttp://dbpedia.org/ontology/Country
p17
sg9
I5355
sg10
g11
sg12
g13
sg14
g16
sa(dp18
g3
VCountries
p19
sg5
g6
sg7
Vhttp://wibitaxonomy.org/Category%3ACountries
p20
sg9
I5355
sg10
Vhttp://wibitaxonomy.org/Category%3AIsrael
p21
sg12
g13
sg14
Vcountry
p22
sa(dp23
g3
VGovernment
p24
sg5
g6
sg7
Vhttp://wibitaxonomy.org/Government
p25
sg9
I2939
sg10
Vhttp://wibitaxonomy.org/Israel
p26
sg12
g13
sg14
Vgovernment
p27
sa(dp28
g3
VEastern Mediterranean
p29
sg5
g6
sg7
Vhttp://dbpedia.org/resource/Category:Eastern_Mediterranean
p30
sg9
I497
sg10
g11
sg12
g13
sg14
VEastern mediterranean
p31
sa(dp32
g3
VIsrael
p33
sg5
g6
sg7
Vhttp://dbpedia.org/resource/Category:Israel
p34
sg9
I491
sg10
g11
sg12
g13
sg14
Visrael
p35
sa(dp36
g3
VRepublics
p37
sg5
g6
sg7
Vhttp://dbpedia.org/resource/Category:Republics
p38
sg9
I409
sg10
g11
sg12
g13
sg14
Vrepublic
p39
sa(dp40
g3
VRepublics
p41
sg5
g6
sg7
Vhttp://dbpedia.org/resource/Category:Republics
p42
sg9
I409
sg10
Vhttp://dbpedia.org/resource/Category:Israel
p43
sg12
g13
sg14
Vrepublic
p44
sa(dp45
g3
VRepublic
p46
sg5
g6
sg7
Vhttp://wibitaxonomy.org/Republic
p47
sg9
I409
sg10
g26
sg12
g13
sg14
Vrepublic
p48
sa(dp49
g3
VLevant
p50
sg5
g6
sg7
Vhttp://dbpedia.org/resource/Category:Levant
p51
sg9
I29
sg10
g11
sg12
g13
sg14
Vlevant
p52
sa(dp53
g3
VSouthern Levant
p54
sg5
g6
sg7
Vhttp://dbpedia.org/resource/Category:Southern_Levant
p55
sg9
I7
sg10
g43
sg12
g13
sg14
VSouthern levant
p56
sa(dp57
g3
Vpopulated place
p58
sg5
g6
sg7
Vhttp://dbpedia.org/ontology/PopulatedPlace
p59
sg9
I2
sg10
g11
sg12
g13
sg14
Vpopulated place
p60
sa(dp61
g3
VCountries in Asia
p62
sg5
g6
sg7
Vhttp://dbpedia.org/resource/Category:Countries_in_Asia
p63
sg9
I2
sg10
g43
sg12
g13
sg14
VCountries in asia
p64
sa(dp65
g3
VPalestine
p66
sg5
g6
sg7
Vhttp://dbpedia.org/resource/Category:Palestine
p67
sg9
I2
sg10
g43
sg12
g13
sg14
Vpalestine
p68
sa(dp69
g3
VLiberal democracies
p70
sg5
g6
sg7
Vhttp://dbpedia.org/resource/Category:Liberal_democracies
p71
sg9
I1
sg10
g11
sg12
g13
sg14
VLiberal democracy
p72
sa(dp73
g3
VStates and territories established in 1948
p74
sg5
g6
sg7
Vhttp://dbpedia.org/resource/Category:States_and_territories_established_in_1948
p75
sg9
I0
sg10
g11
sg12
g13
sg14
VStates and territories established in 1948
p76
sa(dp77
g3
VHebrew words and phrases
p78
sg5
g6
sg7
Vhttp://dbpedia.org/resource/Category:Hebrew_words_and_phrases
p79
sg9
I0
sg10
g11
sg12
g13
sg14
VHebrew words and phrase
p80
sa(dp81
g3
VWestern Asian countries
p82
sg5
g6
sg7
Vhttp://dbpedia.org/resource/Category:Western_Asian_countries
p83
sg9
I0
sg10
g11
sg12
g13
sg14
VWestern Asian country
p84
sa(dp85
g3
VMember states of the United Nations
p86
sg5
g6
sg7
Vhttp://dbpedia.org/resource/Category:Member_states_of_the_United_Nations
p87
sg9
I0
sg10
g11
sg12
g13
sg14
VMember states of the United nation
p88
sa(dp89
g3
VArabic-speaking countries and territories
p90
sg5
g6
sg7
Vhttp://dbpedia.org/resource/Category:Arabic-speaking_countries_and_territories
p91
sg9
I0
sg10
g11
sg12
g13
sg14
VArabic-speaking countries and territory
p92
sa(dp93
g3
V1948 establishments in Israel
p94
sg5
g6
sg7
Vhttp://dbpedia.org/resource/Category:1948_establishments_in_Israel
p95
sg9
I0
sg10
g11
sg12
g13
sg14
V1948 establishments in israel
p96
sa(dp97
g3
VMember states of the Union for the Mediterranean
p98
sg5
g6
sg7
Vhttp://dbpedia.org/resource/Category:Member_states_of_the_Union_for_the_Mediterranean
p99
sg9
I0
sg10
g11
sg12
g13
sg14
VMember states of the Union for the mediterranean
p100
sa(dp101
g3
VMiddle Eastern countries
p102
sg5
g6
sg7
Vhttp://dbpedia.org/resource/Category:Middle_Eastern_countries
p103
sg9
I0
sg10
g11
sg12
g13
sg14
VMiddle Eastern country
p104
sa(dp105
g3
Nsg5
g6
sg7
Vhttp://dbpedia.org/resource/Category:List_of_Mediterranean_countries
p106
sg9
I0
sg10
g11
sg12
g13
sg14
Nsa(dp107
g3
Nsg5
g6
sg7
Vhttp://dbpedia.org/ontology/Location
p108
sg9
I0
sg10
g11
sg12
g13
sg14
Nsa(dp109
g3
VWestern Asian countries
p110
sg5
g6
sg7
Vhttp://dbpedia.org/resource/Category:Western_Asian_countries
p111
sg9
I0
sg10
g43
sg12
g13
sg14
VWestern Asian country
p112
sa(dp113
g3
VPolitical entities in the Land of Israel
p114
sg5
g6
sg7
Vhttp://dbpedia.org/resource/Category:Political_entities_in_the_Land_of_Israel
p115
sg9
I0
sg10
g43
sg12
g13
sg14
VPolitical entities in the Land of israel
p116
sa(dp117
g3
VWikipedia categories named after countries
p118
sg5
g6
sg7
Vhttp://dbpedia.org/resource/Category:Wikipedia_categories_named_after_countries
p119
sg9
I0
sg10
g43
sg12
g13
sg14
VWikipedia categories named after country
p120
sa(dp121
g3
VArabic-speaking countries and territories
p122
sg5
g6
sg7
Vhttp://dbpedia.org/resource/Category:Arabic-speaking_countries_and_territories
p123
sg9
I0
sg10
g43
sg12
g13
sg14
VArabic-speaking countries and territory
p124
sa(dp125
g3
VMiddle Eastern countries
p126
sg5
g6
sg7
Vhttp://dbpedia.org/resource/Category:Middle_Eastern_countries
p127
sg9
I0
sg10
g43
sg12
g13
sg14
VMiddle Eastern country
p128
sa(dp129
g3
VLand of Israel
p130
sg5
g6
sg7
Vhttp://dbpedia.org/resource/Category:Land_of_Israel
p131
sg9
I0
sg10
g43
sg12
g13
sg14
VLand of israel
p132
sa(dp133
g3
VCountries bordering the Red Sea
p134
sg5
g6
sg7
Vhttp://dbpedia.org/resource/Category:Countries_bordering_the_Red_Sea
p135
sg9
I0
sg10
g43
sg12
g13
sg14
VCountries bordering the Red sea
p136
sa(dp137
g3
VCountries of the Mediterranean Sea
p138
sg5
g6
sg7
Vhttp://dbpedia.org/resource/Category:Countries_of_the_Mediterranean_Sea
p139
sg9
I0
sg10
g43
sg12
g13
sg14
VCountries of the Mediterranean sea
p140
sa(dp141
g3
VParliamentary republic
p142
sg5
g6
sg7
Vhttp://wibitaxonomy.org/Parliamentary_republic
p143
sg9
I0
sg10
g26
sg12
g13
sg14
VParliamentary republic
p144
sa(dp145
g3
VArabic%5C-speaking countries and territories
p146
sg5
g6
sg7
Vhttp://wibitaxonomy.org/Category%3AArabic%5C-speaking_countries_and_territories
p147
sg9
I0
sg10
g21
sg12
g13
sg14
VArabic%5C-speaking countries and territory
p148
sa(dp149
g3
VCountries by language
p150
sg5
g6
sg7
Vhttp://wibitaxonomy.org/Category%3ACountries_by_language
p151
sg9
I0
sg10
g21
sg12
g13
sg14
VCountries by language
p152
sa.