(lp1
(dp2
S'generalizedLabel'
p3
VProteobacteria
p4
sS'term'
p5
VLimnohabitans planktonicus
p6
sS'generalizedURI'
p7
Vhttp://dbpedia.org/resource/Proteobacteria
p8
sS'generalizedFreq'
p9
I1429
sS'subjectURI'
p10
Vhttp://dbpedia.org/resource/Limnohabitans_planktonicus
p11
sS'inputType'
p12
VSpecies
p13
sS'generalizedLemma'
p14
Vproteobacteria
p15
sa(dp16
g3
VBurkholderiales
p17
sg5
g6
sg7
Vhttp://dbpedia.org/resource/Category:Burkholderiales
p18
sg9
I44
sg10
g11
sg12
g13
sg14
Vburkholderiales
p19
sa(dp20
g3
Vspecies
p21
sg5
g6
sg7
Vhttp://dbpedia.org/ontology/Species
p22
sg9
I5
sg10
g11
sg12
g13
sg14
Vspecie
p23
sa(dp24
g3
VBeta Proteobacteria
p25
sg5
g6
sg7
Vhttp://dbpedia.org/resource/Beta_Proteobacteria
p26
sg9
I3
sg10
g11
sg12
g13
sg14
VBeta proteobacteria
p27
sa(dp28
g3
VBacteria
p29
sg5
g6
sg7
Vhttp://dbpedia.org/resource/Bacteria
p30
sg9
I1
sg10
g11
sg12
g13
sg14
Vbacteria
p31
sa.