(lp1
(dp2
S'generalizedLabel'
p3
VLagoons
p4
sS'term'
p5
VMar Menor
p6
sS'generalizedURI'
p7
Vhttp://dbpedia.org/resource/Category:Lagoons
p8
sS'generalizedFreq'
p9
I597
sS'subjectURI'
p10
Vhttp://dbpedia.org/resource/Mar_Menor
p11
sS'inputType'
p12
VLocation
p13
sS'generalizedLemma'
p14
Vlagoon
p15
sa(dp16
g3
VLagoon
p17
sg5
g6
sg7
Vhttp://wibitaxonomy.org/Lagoon
p18
sg9
I597
sg10
Vhttp://wibitaxonomy.org/Mar_Menor
p19
sg12
g13
sg14
Vlagoon
p20
sa(dp21
g3
VBody of water
p22
sg5
g6
sg7
Vhttp://wibitaxonomy.org/Body_of_water
p23
sg9
I27
sg10
g19
sg12
g13
sg14
VBody of water
p24
sa(dp25
g3
VWetlands of Spain
p26
sg5
g6
sg7
Vhttp://dbpedia.org/resource/Category:Wetlands_of_Spain
p27
sg9
I0
sg10
g11
sg12
g13
sg14
VWetlands of spain
p28
sa(dp29
g3
VRamsar sites in Spain
p30
sg5
g6
sg7
Vhttp://dbpedia.org/resource/Category:Ramsar_sites_in_Spain
p31
sg9
I0
sg10
g11
sg12
g13
sg14
VRamsar sites in spain
p32
sa(dp33
g3
VSpecial Protection Areas of Spain
p34
sg5
g6
sg7
Vhttp://dbpedia.org/resource/Category:Special_Protection_Areas_of_Spain
p35
sg9
I0
sg10
g11
sg12
g13
sg14
VSpecial Protection Areas of spain
p36
sa(dp37
g3
VLandforms of the Region of Murcia
p38
sg5
g6
sg7
Vhttp://dbpedia.org/resource/Category:Landforms_of_the_Region_of_Murcia
p39
sg9
I0
sg10
g11
sg12
g13
sg14
VLandforms of the Region of murcia
p40
sa.