(lp1
(dp2
S'generalizedLabel'
p3
VSea
p4
sS'term'
p5
VMediterranean Sea
p6
sS'generalizedURI'
p7
Vhttp://wibitaxonomy.org/Sea
p8
sS'generalizedFreq'
p9
I27324
sS'subjectURI'
p10
Vhttp://wibitaxonomy.org/Mediterranean_Sea
p11
sS'inputType'
p12
VLocation
p13
sS'generalizedLemma'
p14
Vsea
p15
sa(dp16
g3
VMediterranean
p17
sg5
g6
sg7
Vhttp://dbpedia.org/resource/Category:Mediterranean
p18
sg9
I2957
sg10
Vhttp://dbpedia.org/resource/Mediterranean_Sea
p19
sg12
g13
sg14
Vmediterranean
p20
sa(dp21
g3
VMediterranean
p22
sg5
g6
sg7
Vhttp://dbpedia.org/resource/Category:Mediterranean
p23
sg9
I2957
sg10
Vhttp://dbpedia.org/resource/Category:Mediterranean_Sea
p24
sg12
g13
sg14
Vmediterranean
p25
sa(dp26
g3
VMediterranean
p27
sg5
g6
sg7
Vhttp://wibitaxonomy.org/Category%3AMediterranean
p28
sg9
I2957
sg10
Vhttp://wibitaxonomy.org/Category%3AMediterranean_Sea
p29
sg12
g13
sg14
Vmediterranean
p30
sa(dp31
g3
VAsia
p32
sg5
g6
sg7
Vhttp://wibitaxonomy.org/Category%3AAsia
p33
sg9
I1925
sg10
g29
sg12
g13
sg14
Vasia
p34
sa(dp35
g3
VMediterranean Sea
p36
sg5
g6
sg7
Vhttp://dbpedia.org/resource/Category:Mediterranean_Sea
p37
sg9
I733
sg10
g19
sg12
g13
sg14
VMediterranean sea
p38
sa(dp39
g3
VEuropean seas
p40
sg5
g6
sg7
Vhttp://dbpedia.org/resource/Category:European_seas
p41
sg9
I44
sg10
g19
sg12
g13
sg14
VEuropean sea
p42
sa(dp43
g3
VEuropean seas
p44
sg5
g6
sg7
Vhttp://dbpedia.org/resource/Category:European_seas
p45
sg9
I44
sg10
g24
sg12
g13
sg14
VEuropean sea
p46
sa(dp47
g3
VMarginal seas
p48
sg5
g6
sg7
Vhttp://dbpedia.org/resource/Category:Marginal_seas
p49
sg9
I38
sg10
g19
sg12
g13
sg14
VMarginal sea
p50
sa(dp51
g3
VBody of water
p52
sg5
g6
sg7
Vhttp://wibitaxonomy.org/Body_of_water
p53
sg9
I27
sg10
g11
sg12
g13
sg14
VBody of water
p54
sa(dp55
g3
VWestern Asia
p56
sg5
g6
sg7
Vhttp://wibitaxonomy.org/Category%3AWestern_Asia
p57
sg9
I18
sg10
g29
sg12
g13
sg14
VWestern asia
p58
sa(dp59
g3
VMarine ecoregions
p60
sg5
g6
sg7
Vhttp://dbpedia.org/resource/Category:Marine_ecoregions
p61
sg9
I6
sg10
g19
sg12
g13
sg14
VMarine ecoregions
p62
sa(dp63
g3
VArticles containing video clips
p64
sg5
g6
sg7
Vhttp://dbpedia.org/resource/Category:Articles_containing_video_clips
p65
sg9
I0
sg10
g19
sg12
g13
sg14
VArticles containing video clip
p66
sa(dp67
g3
VNatural history of Europe
p68
sg5
g6
sg7
Vhttp://dbpedia.org/resource/Category:Natural_history_of_Europe
p69
sg9
I0
sg10
g19
sg12
g13
sg14
VNatural history of europe
p70
sa(dp71
g3
VSeas of the Atlantic Ocean
p72
sg5
g6
sg7
Vhttp://dbpedia.org/resource/Category:Seas_of_the_Atlantic_Ocean
p73
sg9
I0
sg10
g19
sg12
g13
sg14
VSeas of the Atlantic ocean
p74
sa(dp75
g3
VWikipedia categories named after bodies of water
p76
sg5
g6
sg7
Vhttp://dbpedia.org/resource/Category:Wikipedia_categories_named_after_bodies_of_water
p77
sg9
I0
sg10
g24
sg12
g13
sg14
VWikipedia categories named after bodies of water
p78
sa(dp79
g3
VSeas of the Atlantic Ocean
p80
sg5
g6
sg7
Vhttp://dbpedia.org/resource/Category:Seas_of_the_Atlantic_Ocean
p81
sg9
I0
sg10
g24
sg12
g13
sg14
VSeas of the Atlantic ocean
p82
sa.