(lp1
(dp2
S'generalizedLabel'
p3
VPlaces
p4
sS'term'
p5
VMediterranean
p6
sS'generalizedURI'
p7
Vhttp://dbpedia.org/resource/Category:Places
p8
sS'generalizedFreq'
p9
I6273
sS'subjectURI'
p10
Vhttp://dbpedia.org/resource/Category:Mediterranean
p11
sS'inputType'
p12
VLocation
p13
sS'generalizedLemma'
p14
Vplace
p15
sa(dp16
g3
VAsia
p17
sg5
g6
sg7
Vhttp://wibitaxonomy.org/Category%3AAsia
p18
sg9
I1925
sg10
Vhttp://wibitaxonomy.org/Category%3AMediterranean
p19
sg12
g13
sg14
Vasia
p20
sa(dp21
g3
VWestern Asia
p22
sg5
g6
sg7
Vhttp://wibitaxonomy.org/Category%3AWestern_Asia
p23
sg9
I18
sg10
g19
sg12
g13
sg14
VWestern asia
p24
sa(dp25
g3
VWikipedia categories named after bodies of water
p26
sg5
g6
sg7
Vhttp://dbpedia.org/resource/Category:Wikipedia_categories_named_after_bodies_of_water
p27
sg9
I0
sg10
g11
sg12
g13
sg14
VWikipedia categories named after bodies of water
p28
sa(dp29
g3
VAfro%5C-Eurasia
p30
sg5
g6
sg7
Vhttp://wibitaxonomy.org/Category%3AAfro%5C-Eurasia
p31
sg9
I0
sg10
g19
sg12
g13
sg14
Vafro%5c-eurasia
p32
sa.