(lp1
(dp2
S'generalizedLabel'
p3
VMethane
p4
sS'term'
p5
Vmethane
p6
sS'generalizedURI'
p7
Vhttp://dbpedia.org/resource/Category:Methane
p8
sS'generalizedFreq'
p9
I9799
sS'subjectURI'
p10
Vhttp://dbpedia.org/resource/Methane
p11
sS'inputType'
p12
VCompound
p13
sS'generalizedLemma'
p14
Vmethane
p15
sa(dp16
g3
VAtmosphere
p17
sg5
g6
sg7
Vhttp://wibitaxonomy.org/Category%3AAtmosphere
p18
sg9
I8110
sg10
Vhttp://wibitaxonomy.org/Category%3AMethane
p19
sg12
g13
sg14
Vatmosphere
p20
sa(dp21
g3
VMatter
p22
sg5
g6
sg7
Vhttp://wibitaxonomy.org/Matter
p23
sg9
I7091
sg10
Vhttp://wibitaxonomy.org/Methane
p24
sg12
g13
sg14
Vmatter
p25
sa(dp26
g3
VFuels
p27
sg5
g6
sg7
Vhttp://dbpedia.org/resource/Category:Fuels
p28
sg9
I5114
sg10
g11
sg12
g13
sg14
Vfuel
p29
sa(dp30
g3
VGreenhouse gases
p31
sg5
g6
sg7
Vhttp://dbpedia.org/resource/Category:Greenhouse_gases
p32
sg9
I3732
sg10
g11
sg12
g13
sg14
VGreenhouse gas
p33
sa(dp34
g3
VGreenhouse gases
p35
sg5
g6
sg7
Vhttp://dbpedia.org/resource/Category:Greenhouse_gases
p36
sg9
I3732
sg10
Vhttp://dbpedia.org/resource/Category:Methane
p37
sg12
g13
sg14
VGreenhouse gas
p38
sa(dp39
g3
VGreenhouse gases
p40
sg5
g6
sg7
Vhttp://wibitaxonomy.org/Category%3AGreenhouse_gases
p41
sg9
I3732
sg10
g19
sg12
g13
sg14
VGreenhouse gas
p42
sa(dp43
g3
VAlkanes
p44
sg5
g6
sg7
Vhttp://dbpedia.org/resource/Category:Alkanes
p45
sg9
I651
sg10
g37
sg12
g13
sg14
Valkane
p46
sa(dp47
g3
VAir pollution
p48
sg5
g6
sg7
Vhttp://wibitaxonomy.org/Category%3AAir_pollution
p49
sg9
I485
sg10
g19
sg12
g13
sg14
VAir pollution
p50
sa(dp51
g3
VAnaerobic digestion
p52
sg5
g6
sg7
Vhttp://dbpedia.org/resource/Category:Anaerobic_digestion
p53
sg9
I91
sg10
g11
sg12
g13
sg14
VAnaerobic digestion
p54
sa(dp55
g3
VAnaerobic digestion
p56
sg5
g6
sg7
Vhttp://dbpedia.org/resource/Category:Anaerobic_digestion
p57
sg9
I91
sg10
g37
sg12
g13
sg14
VAnaerobic digestion
p58
sa(dp59
g3
Vchemical compound
p60
sg5
g6
sg7
Vhttp://dbpedia.org/ontology/ChemicalCompound
p61
sg9
I76
sg10
g11
sg12
g13
sg14
Vchemical compound
p62
sa(dp63
g3
VChemical compound
p64
sg5
g6
sg7
Vhttp://wibitaxonomy.org/Chemical_compound
p65
sg9
I76
sg10
g24
sg12
g13
sg14
VChemical compound
p66
sa(dp67
g3
VIndustrial gases
p68
sg5
g6
sg7
Vhttp://dbpedia.org/resource/Category:Industrial_gases
p69
sg9
I10
sg10
g11
sg12
g13
sg14
VIndustrial gas
p70
sa(dp71
g3
VFuel gas
p72
sg5
g6
sg7
Vhttp://dbpedia.org/resource/Category:Fuel_gas
p73
sg9
I7
sg10
g11
sg12
g13
sg14
VFuel gas
p74
sa(dp75
g3
Vchemical substance
p76
sg5
g6
sg7
Vhttp://dbpedia.org/ontology/ChemicalSubstance
p77
sg9
I6
sg10
g11
sg12
g13
sg14
Vchemical substance
p78
sa(dp79
g3
VChemical substance
p80
sg5
g6
sg7
Vhttp://wibitaxonomy.org/Chemical_substance
p81
sg9
I6
sg10
g24
sg12
g13
sg14
VChemical substance
p82
sa(dp83
g3
VGaseous signaling molecules
p84
sg5
g6
sg7
Vhttp://dbpedia.org/resource/Category:Gaseous_signaling_molecules
p85
sg9
I0
sg10
g11
sg12
g13
sg14
VGaseous signaling molecule
p86
sa.