(lp1
(dp2
S'generalizedLabel'
p3
VMatter
p4
sS'term'
p5
VMethanol
p6
sS'generalizedURI'
p7
Vhttp://wibitaxonomy.org/Matter
p8
sS'generalizedFreq'
p9
I7091
sS'subjectURI'
p10
Vhttp://wibitaxonomy.org/Methanol
p11
sS'inputType'
p12
VCompound
p13
sS'generalizedLemma'
p14
Vmatter
p15
sa(dp16
g3
VEnergy storage
p17
sg5
g6
sg7
Vhttp://dbpedia.org/resource/Category:Energy_storage
p18
sg9
I133
sg10
Vhttp://dbpedia.org/resource/Methanol
p19
sg12
g13
sg14
VEnergy storage
p20
sa(dp21
g3
Vchemical compound
p22
sg5
g6
sg7
Vhttp://dbpedia.org/ontology/ChemicalCompound
p23
sg9
I76
sg10
g19
sg12
g13
sg14
Vchemical compound
p24
sa(dp25
g3
VChemical compound
p26
sg5
g6
sg7
Vhttp://wibitaxonomy.org/Chemical_compound
p27
sg9
I76
sg10
g11
sg12
g13
sg14
VChemical compound
p28
sa(dp29
g3
VBiofuels
p30
sg5
g6
sg7
Vhttp://dbpedia.org/resource/Category:Biofuels
p31
sg9
I55
sg10
g19
sg12
g13
sg14
Vbiofuels
p32
sa(dp33
g3
VNeurotoxins
p34
sg5
g6
sg7
Vhttp://dbpedia.org/resource/Category:Neurotoxins
p35
sg9
I51
sg10
g19
sg12
g13
sg14
Vneurotoxin
p36
sa(dp37
g3
VCommodity chemicals
p38
sg5
g6
sg7
Vhttp://dbpedia.org/resource/Category:Commodity_chemicals
p39
sg9
I7
sg10
g19
sg12
g13
sg14
VCommodity chemical
p40
sa(dp41
g3
Vchemical substance
p42
sg5
g6
sg7
Vhttp://dbpedia.org/ontology/ChemicalSubstance
p43
sg9
I6
sg10
g19
sg12
g13
sg14
Vchemical substance
p44
sa(dp45
g3
VChemical substance
p46
sg5
g6
sg7
Vhttp://wibitaxonomy.org/Chemical_substance
p47
sg9
I6
sg10
g11
sg12
g13
sg14
VChemical substance
p48
sa(dp49
g3
VAlcohol solvents
p50
sg5
g6
sg7
Vhttp://dbpedia.org/resource/Category:Alcohol_solvents
p51
sg9
I1
sg10
g19
sg12
g13
sg14
VAlcohol solvent
p52
sa(dp53
g3
VAnatomical preservation
p54
sg5
g6
sg7
Vhttp://dbpedia.org/resource/Category:Anatomical_preservation
p55
sg9
I0
sg10
g19
sg12
g13
sg14
VAnatomical preservation
p56
sa(dp57
g3
VIrish inventions
p58
sg5
g6
sg7
Vhttp://dbpedia.org/resource/Category:Irish_inventions
p59
sg9
I0
sg10
g19
sg12
g13
sg14
VIrish invention
p60
sa(dp61
g3
VHazardous air pollutants
p62
sg5
g6
sg7
Vhttp://dbpedia.org/resource/Category:Hazardous_air_pollutants
p63
sg9
I0
sg10
g19
sg12
g13
sg14
VHazardous air pollutant
p64
sa(dp65
g3
VOxygenates
p66
sg5
g6
sg7
Vhttp://dbpedia.org/resource/Category:Oxygenates
p67
sg9
I0
sg10
g19
sg12
g13
sg14
Voxygenates
p68
sa(dp69
g3
VHuman metabolites
p70
sg5
g6
sg7
Vhttp://dbpedia.org/resource/Category:Human_metabolites
p71
sg9
I0
sg10
g19
sg12
g13
sg14
VHuman metabolite
p72
sa(dp73
g3
VGABAA receptor positive allosteric modulators
p74
sg5
g6
sg7
Vhttp://dbpedia.org/resource/Category:GABAA_receptor_positive_allosteric_modulators
p75
sg9
I0
sg10
g19
sg12
g13
sg14
VGABAA receptor positive allosteric modulators
p76
sa(dp77
g3
VAlkanols
p78
sg5
g6
sg7
Vhttp://dbpedia.org/resource/Category:Alkanols
p79
sg9
I0
sg10
g19
sg12
g13
sg14
Valkanols
p80
sa.