(lp1
(dp2
S'generalizedLabel'
p3
Vplace
p4
sS'term'
p5
VMo'orea
p6
sS'generalizedURI'
p7
Vhttp://dbpedia.org/ontology/Place
p8
sS'generalizedFreq'
p9
I6273
sS'subjectURI'
p10
Vhttp://dbpedia.org/resource/Mo'orea
p11
sS'inputType'
p12
VLocation
p13
sS'generalizedLemma'
p14
g4
sa(dp15
g3
Visland
p16
sg5
g6
sg7
Vhttp://dbpedia.org/ontology/Island
p17
sg9
I6048
sg10
g11
sg12
g13
sg14
g16
sa(dp18
g3
Vpopulated place
p19
sg5
g6
sg7
Vhttp://dbpedia.org/ontology/PopulatedPlace
p20
sg9
I2
sg10
g11
sg12
g13
sg14
Vpopulated place
p21
sa(dp22
g3
VPleistocene volcanoes
p23
sg5
g6
sg7
Vhttp://dbpedia.org/resource/Category:Pleistocene_volcanoes
p24
sg9
I0
sg10
g11
sg12
g13
sg14
VPleistocene volcano
p25
sa(dp26
g3
VRamsar sites in France
p27
sg5
g6
sg7
Vhttp://dbpedia.org/resource/Category:Ramsar_sites_in_France
p28
sg9
I0
sg10
g11
sg12
g13
sg14
VRamsar sites in france
p29
sa(dp30
g3
VIslands of the Society Islands
p31
sg5
g6
sg7
Vhttp://dbpedia.org/resource/Category:Islands_of_the_Society_Islands
p32
sg9
I0
sg10
g11
sg12
g13
sg14
VIslands of the Society island
p33
sa(dp34
g3
VVolcanoes of French Polynesia
p35
sg5
g6
sg7
Vhttp://dbpedia.org/resource/Category:Volcanoes_of_French_Polynesia
p36
sg9
I0
sg10
g11
sg12
g13
sg14
VVolcanoes of French polynesia
p37
sa(dp38
g3
VExtinct volcanoes
p39
sg5
g6
sg7
Vhttp://dbpedia.org/resource/Category:Extinct_volcanoes
p40
sg9
I0
sg10
g11
sg12
g13
sg14
VExtinct volcano
p41
sa(dp42
g3
VPliocene volcanoes
p43
sg5
g6
sg7
Vhttp://dbpedia.org/resource/Category:Pliocene_volcanoes
p44
sg9
I0
sg10
g11
sg12
g13
sg14
VPliocene volcano
p45
sa(dp46
g3
Nsg5
g6
sg7
Vhttp://dbpedia.org/ontology/Location
p47
sg9
I0
sg10
g11
sg12
g13
sg14
Nsa.