(lp1
(dp2
S'generalizedLabel'
p3
VRegions of California
p4
sS'term'
p5
VMonterey Bay
p6
sS'generalizedURI'
p7
Vhttp://dbpedia.org/resource/Category:Regions_of_California
p8
sS'generalizedFreq'
p9
I2
sS'subjectURI'
p10
Vhttp://dbpedia.org/resource/Monterey_Bay
p11
sS'inputType'
p12
VLocation
p13
sS'generalizedLemma'
p14
VRegions of california
p15
sa(dp16
g3
VLandforms of Monterey County, California
p17
sg5
g6
sg7
Vhttp://dbpedia.org/resource/Category:Landforms_of_Monterey_County,_California
p18
sg9
I0
sg10
g11
sg12
g13
sg14
VLandforms of Monterey County, california
p19
sa(dp20
g3
VLandforms of San Benito County, California
p21
sg5
g6
sg7
Vhttp://dbpedia.org/resource/Category:Landforms_of_San_Benito_County,_California
p22
sg9
I0
sg10
g11
sg12
g13
sg14
VLandforms of San Benito County, california
p23
sa(dp24
g3
VLandforms of Santa Cruz County, California
p25
sg5
g6
sg7
Vhttp://dbpedia.org/resource/Category:Landforms_of_Santa_Cruz_County,_California
p26
sg9
I0
sg10
g11
sg12
g13
sg14
VLandforms of Santa Cruz County, california
p27
sa(dp28
g3
VBirdwatching sites in the United States
p29
sg5
g6
sg7
Vhttp://dbpedia.org/resource/Category:Birdwatching_sites_in_the_United_States
p30
sg9
I0
sg10
g11
sg12
g13
sg14
VBirdwatching sites in the United state
p31
sa(dp32
g3
VBays of California
p33
sg5
g6
sg7
Vhttp://dbpedia.org/resource/Category:Bays_of_California
p34
sg9
I0
sg10
g11
sg12
g13
sg14
VBays of california
p35
sa(dp36
g3
VHeadlands and bays
p37
sg5
g6
sg7
Vhttp://wibitaxonomy.org/Headlands_and_bays
p38
sg9
I0
sg10
Vhttp://wibitaxonomy.org/Monterey_Bay
p39
sg12
g13
sg14
VHeadlands and bay
p40
sa.