(lp1
(dp2
S'generalizedLabel'
p3
VIsland
p4
sS'term'
p5
VMoorea
p6
sS'generalizedURI'
p7
Vhttp://wibitaxonomy.org/Island
p8
sS'generalizedFreq'
p9
I6048
sS'subjectURI'
p10
Vhttp://wibitaxonomy.org/Moorea
p11
sS'inputType'
p12
VLocation
p13
sS'generalizedLemma'
p14
Visland
p15
sa(dp16
g3
VHigh island
p17
sg5
g6
sg7
Vhttp://wibitaxonomy.org/High_island
p18
sg9
I10
sg10
g11
sg12
g13
sg14
VHigh island
p19
sa.