(lp1
(dp2
S'generalizedLabel'
p3
VGrapheme
p4
sS'term'
p5
VN
sS'generalizedURI'
p6
Vhttp://wibitaxonomy.org/Grapheme
p7
sS'generalizedFreq'
p8
I2
sS'subjectURI'
p9
Vhttp://wibitaxonomy.org/N
p10
sS'inputType'
p11
VCompound
p12
sS'generalizedLemma'
p13
Vgrapheme
p14
sa(dp15
g3
VISO basic Latin letters
p16
sg5
VN
sg6
Vhttp://dbpedia.org/resource/Category:ISO_basic_Latin_letters
p17
sg8
I0
sg9
Vhttp://dbpedia.org/resource/N
p18
sg11
g12
sg13
VISO basic Latin letter
p19
sa(dp20
g3
VLetter %5C%28alphabet%5C%29
p21
sg5
VN
sg6
Vhttp://wibitaxonomy.org/Letter_%5C%28alphabet%5C%29
p22
sg8
I0
sg9
g10
sg11
g12
sg13
VLetter %5c%28alphabet%5c%29
p23
sa(dp24
g3
VTypographic unit
p25
sg5
VN
sg6
Vhttp://wibitaxonomy.org/Typographic_unit
p26
sg8
I0
sg9
g10
sg11
g12
sg13
VTypographic unit
p27
sa.