(lp1
(dp2
S'generalizedLabel'
p3
VEnzyme
p4
sS'term'
p5
Vnitrogenase
p6
sS'generalizedURI'
p7
Vhttp://wibitaxonomy.org/Enzyme
p8
sS'generalizedFreq'
p9
I9328
sS'subjectURI'
p10
Vhttp://wibitaxonomy.org/Nitrogenase
p11
sS'inputType'
p12
VCompound
p13
sS'generalizedLemma'
p14
Venzyme
p15
sa(dp16
g3
VMolecule
p17
sg5
g6
sg7
Vhttp://wibitaxonomy.org/Molecule
p18
sg9
I6105
sg10
g11
sg12
g13
sg14
Vmolecule
p19
sa(dp20
g3
VAtom
p21
sg5
g6
sg7
Vhttp://wibitaxonomy.org/Atom
p22
sg9
I1894
sg10
g11
sg12
g13
sg14
Vatom
p23
sa(dp24
g3
VNitrogen metabolism
p25
sg5
g6
sg7
Vhttp://dbpedia.org/resource/Category:Nitrogen_metabolism
p26
sg9
I227
sg10
Vhttp://dbpedia.org/resource/Nitrogenase
p27
sg12
g13
sg14
VNitrogen metabolism
p28
sa(dp29
g3
VIron-sulfur proteins
p30
sg5
g6
sg7
Vhttp://dbpedia.org/resource/Category:Iron-sulfur_proteins
p31
sg9
I21
sg10
g27
sg12
g13
sg14
VIron-sulfur protein
p32
sa(dp33
g3
VEC 1.18.6
p34
sg5
g6
sg7
Vhttp://dbpedia.org/resource/Category:EC_1.18.6
p35
sg9
I0
sg10
g27
sg12
g13
sg14
VEC 1.18.6
p36
sa.