(lp1
(dp2
S'generalizedLabel'
p3
VMolecule
p4
sS'term'
p5
Vnitrite
p6
sS'generalizedURI'
p7
Vhttp://wibitaxonomy.org/Molecule
p8
sS'generalizedFreq'
p9
I6105
sS'subjectURI'
p10
Vhttp://wibitaxonomy.org/Nitrite
p11
sS'inputType'
p12
VCompound
p13
sS'generalizedLemma'
p14
Vmolecule
p15
sa(dp16
g3
VMolecule
p17
sg5
g6
sg7
Vhttp://wibitaxonomy.org/Molecule
p18
sg9
I6105
sg10
g11
sg12
g13
sg14
Vmolecule
p19
sa(dp20
g3
VIon
p21
sg5
g6
sg7
Vhttp://wibitaxonomy.org/Ion
p22
sg9
I4941
sg10
g11
sg12
g13
sg14
Vion
p23
sa(dp24
g3
VIon
p25
sg5
g6
sg7
Vhttp://wibitaxonomy.org/Ion
p26
sg9
I4941
sg10
g11
sg12
g13
sg14
Vion
p27
sa(dp28
g3
VNitrites
p29
sg5
g6
sg7
Vhttp://dbpedia.org/resource/Category:Nitrites
p30
sg9
I2280
sg10
Vhttp://dbpedia.org/resource/Nitrite
p31
sg12
g13
sg14
Vnitrite
p32
sa(dp33
g3
VAtom
p34
sg5
g6
sg7
Vhttp://wibitaxonomy.org/Atom
p35
sg9
I1894
sg10
g11
sg12
g13
sg14
Vatom
p36
sa(dp37
g3
VAtom
p38
sg5
g6
sg7
Vhttp://wibitaxonomy.org/Atom
p39
sg9
I1894
sg10
g11
sg12
g13
sg14
Vatom
p40
sa(dp41
g3
VNitrogen metabolism
p42
sg5
g6
sg7
Vhttp://dbpedia.org/resource/Category:Nitrogen_metabolism
p43
sg9
I227
sg10
g31
sg12
g13
sg14
VNitrogen metabolism
p44
sa(dp45
g3
Vchemical compound
p46
sg5
g6
sg7
Vhttp://dbpedia.org/ontology/ChemicalCompound
p47
sg9
I76
sg10
g31
sg12
g13
sg14
Vchemical compound
p48
sa(dp49
g3
VCuring agents
p50
sg5
g6
sg7
Vhttp://dbpedia.org/resource/Category:Curing_agents
p51
sg9
I7
sg10
g31
sg12
g13
sg14
VCuring agent
p52
sa(dp53
g3
Vchemical substance
p54
sg5
g6
sg7
Vhttp://dbpedia.org/ontology/ChemicalSubstance
p55
sg9
I6
sg10
g31
sg12
g13
sg14
Vchemical substance
p56
sa(dp57
g3
VMolecular geometry
p58
sg5
g6
sg7
Vhttp://wibitaxonomy.org/Molecular_geometry
p59
sg9
I4
sg10
g11
sg12
g13
sg14
VMolecular geometry
p60
sa(dp61
g3
VMolecular geometry
p62
sg5
g6
sg7
Vhttp://wibitaxonomy.org/Molecular_geometry
p63
sg9
I4
sg10
g11
sg12
g13
sg14
VMolecular geometry
p64
sa(dp65
g3
VUnits of measurement
p66
sg5
g6
sg7
Vhttp://wibitaxonomy.org/Units_of_measurement
p67
sg9
I1
sg10
g11
sg12
g13
sg14
VUnits of measurement
p68
sa(dp69
g3
VUnits of measurement
p70
sg5
g6
sg7
Vhttp://wibitaxonomy.org/Units_of_measurement
p71
sg9
I1
sg10
g11
sg12
g13
sg14
VUnits of measurement
p72
sa(dp73
g3
VGarde manger
p74
sg5
g6
sg7
Vhttp://dbpedia.org/resource/Category:Garde_manger
p75
sg9
I0
sg10
g31
sg12
g13
sg14
VGarde manger
p76
sa(dp77
g3
VOxoanions
p78
sg5
g6
sg7
Vhttp://dbpedia.org/resource/Category:Oxoanions
p79
sg9
I0
sg10
g31
sg12
g13
sg14
Voxoanions
p80
sa.