(lp1
(dp2
S'generalizedLabel'
p3
VMass
p4
sS'term'
p5
Vnitrate
p6
sS'generalizedURI'
p7
Vhttp://wibitaxonomy.org/Mass
p8
sS'generalizedFreq'
p9
I12566
sS'subjectURI'
p10
Vhttp://wibitaxonomy.org/Nitrate
p11
sS'inputType'
p12
VCompound
p13
sS'generalizedLemma'
p14
Vmass
p15
sa(dp16
g3
VMass
p17
sg5
g6
sg7
Vhttp://wibitaxonomy.org/Mass
p18
sg9
I12566
sg10
g11
sg12
g13
sg14
Vmass
p19
sa(dp20
g3
VNitrates
p21
sg5
g6
sg7
Vhttp://dbpedia.org/resource/Category:Nitrates
p22
sg9
I5707
sg10
Vhttp://dbpedia.org/resource/Nitrate
p23
sg12
g13
sg14
Vnitrate
p24
sa(dp25
g3
VAtom
p26
sg5
g6
sg7
Vhttp://wibitaxonomy.org/Atom
p27
sg9
I1894
sg10
g11
sg12
g13
sg14
Vatom
p28
sa(dp29
g3
VAtom
p30
sg5
g6
sg7
Vhttp://wibitaxonomy.org/Atom
p31
sg9
I1894
sg10
g11
sg12
g13
sg14
Vatom
p32
sa(dp33
g3
VFunctional groups
p34
sg5
g6
sg7
Vhttp://dbpedia.org/resource/Category:Functional_groups
p35
sg9
I895
sg10
g23
sg12
g13
sg14
VFunctional group
p36
sa(dp37
g3
VNitrogen metabolism
p38
sg5
g6
sg7
Vhttp://dbpedia.org/resource/Category:Nitrogen_metabolism
p39
sg9
I227
sg10
g23
sg12
g13
sg14
VNitrogen metabolism
p40
sa(dp41
g3
VMolecular mass
p42
sg5
g6
sg7
Vhttp://wibitaxonomy.org/Molecular_mass
p43
sg9
I183
sg10
g11
sg12
g13
sg14
VMolecular mass
p44
sa(dp45
g3
VMolecular mass
p46
sg5
g6
sg7
Vhttp://wibitaxonomy.org/Molecular_mass
p47
sg9
I183
sg10
g11
sg12
g13
sg14
VMolecular mass
p48
sa(dp49
g3
Vchemical compound
p50
sg5
g6
sg7
Vhttp://dbpedia.org/ontology/ChemicalCompound
p51
sg9
I76
sg10
g23
sg12
g13
sg14
Vchemical compound
p52
sa(dp53
g3
VCuring agents
p54
sg5
g6
sg7
Vhttp://dbpedia.org/resource/Category:Curing_agents
p55
sg9
I7
sg10
g23
sg12
g13
sg14
VCuring agent
p56
sa(dp57
g3
Vchemical substance
p58
sg5
g6
sg7
Vhttp://dbpedia.org/ontology/ChemicalSubstance
p59
sg9
I6
sg10
g23
sg12
g13
sg14
Vchemical substance
p60
sa(dp61
g3
VWater quality indicators
p62
sg5
g6
sg7
Vhttp://dbpedia.org/resource/Category:Water_quality_indicators
p63
sg9
I2
sg10
g23
sg12
g13
sg14
VWater quality indicator
p64
sa(dp65
g3
VGarde manger
p66
sg5
g6
sg7
Vhttp://dbpedia.org/resource/Category:Garde_manger
p67
sg9
I0
sg10
g23
sg12
g13
sg14
VGarde manger
p68
sa(dp69
g3
VNon-coordinating anions
p70
sg5
g6
sg7
Vhttp://dbpedia.org/resource/Category:Non-coordinating_anions
p71
sg9
I0
sg10
g23
sg12
g13
sg14
VNon-coordinating anion
p72
sa(dp73
g3
VOxoanions
p74
sg5
g6
sg7
Vhttp://dbpedia.org/resource/Category:Oxoanions
p75
sg9
I0
sg10
g23
sg12
g13
sg14
Voxoanions
p76
sa(dp77
g3
VPolyatomic ion
p78
sg5
g6
sg7
Vhttp://wibitaxonomy.org/Polyatomic_ion
p79
sg9
I0
sg10
g11
sg12
g13
sg14
VPolyatomic ion
p80
sa(dp81
g3
VChemical species
p82
sg5
g6
sg7
Vhttp://wibitaxonomy.org/Chemical_species
p83
sg9
I0
sg10
g11
sg12
g13
sg14
VChemical specie
p84
sa(dp85
g3
VMeasure %5C%28mathematics%5C%29
p86
sg5
g6
sg7
Vhttp://wibitaxonomy.org/Measure_%5C%28mathematics%5C%29
p87
sg9
I0
sg10
g11
sg12
g13
sg14
VMeasure %5c%28mathematics%5c%29
p88
sa(dp89
g3
VPolyatomic ion
p90
sg5
g6
sg7
Vhttp://wibitaxonomy.org/Polyatomic_ion
p91
sg9
I0
sg10
g11
sg12
g13
sg14
VPolyatomic ion
p92
sa(dp93
g3
VChemical species
p94
sg5
g6
sg7
Vhttp://wibitaxonomy.org/Chemical_species
p95
sg9
I0
sg10
g11
sg12
g13
sg14
VChemical specie
p96
sa(dp97
g3
VMeasure %5C%28mathematics%5C%29
p98
sg5
g6
sg7
Vhttp://wibitaxonomy.org/Measure_%5C%28mathematics%5C%29
p99
sg9
I0
sg10
g11
sg12
g13
sg14
VMeasure %5c%28mathematics%5c%29
p100
sa.