(lp1
(dp2
S'generalizedLabel'
p3
VMatter
p4
sS'term'
p5
Vnitrous oxide
p6
sS'generalizedURI'
p7
Vhttp://wibitaxonomy.org/Matter
p8
sS'generalizedFreq'
p9
I7091
sS'subjectURI'
p10
Vhttp://wibitaxonomy.org/Nitrous_oxide
p11
sS'inputType'
p12
VCompound
p13
sS'generalizedLemma'
p14
Vmatter
p15
sa(dp16
g3
VGreenhouse gases
p17
sg5
g6
sg7
Vhttp://dbpedia.org/resource/Category:Greenhouse_gases
p18
sg9
I3732
sg10
Vhttp://dbpedia.org/resource/Nitrous_oxide
p19
sg12
g13
sg14
VGreenhouse gas
p20
sa(dp21
g3
Vchemical compound
p22
sg5
g6
sg7
Vhttp://dbpedia.org/ontology/ChemicalCompound
p23
sg9
I76
sg10
g19
sg12
g13
sg14
Vchemical compound
p24
sa(dp25
g3
VChemical compound
p26
sg5
g6
sg7
Vhttp://wibitaxonomy.org/Chemical_compound
p27
sg9
I76
sg10
g11
sg12
g13
sg14
VChemical compound
p28
sa(dp29
g3
VIndustrial gases
p30
sg5
g6
sg7
Vhttp://dbpedia.org/resource/Category:Industrial_gases
p31
sg9
I10
sg10
g19
sg12
g13
sg14
VIndustrial gas
p32
sa(dp33
g3
VInorganic nitrogen compounds
p34
sg5
g6
sg7
Vhttp://dbpedia.org/resource/Category:Inorganic_nitrogen_compounds
p35
sg9
I10
sg10
g19
sg12
g13
sg14
VInorganic nitrogen compound
p36
sa(dp37
g3
Vchemical substance
p38
sg5
g6
sg7
Vhttp://dbpedia.org/ontology/ChemicalSubstance
p39
sg9
I6
sg10
g19
sg12
g13
sg14
Vchemical substance
p40
sa(dp41
g3
VChemical substance
p42
sg5
g6
sg7
Vhttp://wibitaxonomy.org/Chemical_substance
p43
sg9
I6
sg10
g11
sg12
g13
sg14
VChemical substance
p44
sa(dp45
g3
VAerosol propellants
p46
sg5
g6
sg7
Vhttp://dbpedia.org/resource/Category:Aerosol_propellants
p47
sg9
I3
sg10
g19
sg12
g13
sg14
VAerosol propellant
p48
sa(dp49
g3
VInhalants
p50
sg5
g6
sg7
Vhttp://dbpedia.org/resource/Category:Inhalants
p51
sg9
I2
sg10
g19
sg12
g13
sg14
Vinhalant
p52
sa(dp53
g3
VGeneral anesthetics
p54
sg5
g6
sg7
Vhttp://dbpedia.org/resource/Category:General_anesthetics
p55
sg9
I0
sg10
g19
sg12
g13
sg14
VGeneral anesthetic
p56
sa(dp57
g3
VRocket oxidizers
p58
sg5
g6
sg7
Vhttp://dbpedia.org/resource/Category:Rocket_oxidizers
p59
sg9
I0
sg10
g19
sg12
g13
sg14
VRocket oxidizer
p60
sa(dp61
g3
VIndustrial hygiene
p62
sg5
g6
sg7
Vhttp://dbpedia.org/resource/Category:Industrial_hygiene
p63
sg9
I0
sg10
g19
sg12
g13
sg14
VIndustrial hygiene
p64
sa(dp65
g3
VNicotinic antagonists
p66
sg5
g6
sg7
Vhttp://dbpedia.org/resource/Category:Nicotinic_antagonists
p67
sg9
I0
sg10
g19
sg12
g13
sg14
VNicotinic antagonist
p68
sa(dp69
g3
VVehicle modification
p70
sg5
g6
sg7
Vhttp://dbpedia.org/resource/Category:Vehicle_modification
p71
sg9
I0
sg10
g19
sg12
g13
sg14
VVehicle modification
p72
sa(dp73
g3
VMonopropellants
p74
sg5
g6
sg7
Vhttp://dbpedia.org/resource/Category:Monopropellants
p75
sg9
I0
sg10
g19
sg12
g13
sg14
Vmonopropellants
p76
sa(dp77
g3
VNMDA receptor antagonists
p78
sg5
g6
sg7
Vhttp://dbpedia.org/resource/Category:NMDA_receptor_antagonists
p79
sg9
I0
sg10
g19
sg12
g13
sg14
VNMDA receptor antagonist
p80
sa(dp81
g3
VDissociative drugs
p82
sg5
g6
sg7
Vhttp://dbpedia.org/resource/Category:Dissociative_drugs
p83
sg9
I0
sg10
g19
sg12
g13
sg14
VDissociative drug
p84
sa(dp85
g3
VEuphoriants
p86
sg5
g6
sg7
Vhttp://dbpedia.org/resource/Category:Euphoriants
p87
sg9
I0
sg10
g19
sg12
g13
sg14
Veuphoriant
p88
sa(dp89
g3
V5-HT3 antagonists
p90
sg5
g6
sg7
Vhttp://dbpedia.org/resource/Category:5-HT3_antagonists
p91
sg9
I0
sg10
g19
sg12
g13
sg14
V5-HT3 antagonist
p92
sa(dp93
g3
VWorld Health Organization essential medicines
p94
sg5
g6
sg7
Vhttp://dbpedia.org/resource/Category:World_Health_Organization_essential_medicines
p95
sg9
I0
sg10
g19
sg12
g13
sg14
VWorld Health Organization essential medicine
p96
sa(dp97
g3
VGlycine receptor agonists
p98
sg5
g6
sg7
Vhttp://dbpedia.org/resource/Category:Glycine_receptor_agonists
p99
sg9
I0
sg10
g19
sg12
g13
sg14
VGlycine receptor agonist
p100
sa(dp101
g3
VGaseous signaling molecules
p102
sg5
g6
sg7
Vhttp://dbpedia.org/resource/Category:Gaseous_signaling_molecules
p103
sg9
I0
sg10
g19
sg12
g13
sg14
VGaseous signaling molecule
p104
sa(dp105
g3
VGABAA receptor positive allosteric modulators
p106
sg5
g6
sg7
Vhttp://dbpedia.org/resource/Category:GABAA_receptor_positive_allosteric_modulators
p107
sg9
I0
sg10
g19
sg12
g13
sg14
VGABAA receptor positive allosteric modulators
p108
sa.