(lp1
(dp2
S'generalizedLabel'
p3
VNitrogen
p4
sS'term'
p5
Vnitrogen
p6
sS'generalizedURI'
p7
Vhttp://dbpedia.org/resource/Category:Nitrogen
p8
sS'generalizedFreq'
p9
I9892
sS'subjectURI'
p10
Vhttp://dbpedia.org/resource/Nitrogen
p11
sS'inputType'
p12
VCompound
p13
sS'generalizedLemma'
p14
Vnitrogen
p15
sa(dp16
g3
VMatter
p17
sg5
g6
sg7
Vhttp://wibitaxonomy.org/Matter
p18
sg9
I7091
sg10
Vhttp://wibitaxonomy.org/Nitrogen
p19
sg12
g13
sg14
Vmatter
p20
sa(dp21
g3
VChemistry
p22
sg5
g6
sg7
Vhttp://wibitaxonomy.org/Category%3AChemistry
p23
sg9
I4471
sg10
Vhttp://wibitaxonomy.org/Category%3ANitrogen
p24
sg12
g13
sg14
Vchemistry
p25
sa(dp26
g3
VChemical elements
p27
sg5
g6
sg7
Vhttp://dbpedia.org/resource/Category:Chemical_elements
p28
sg9
I29
sg10
Vhttp://dbpedia.org/resource/Category:Nitrogen
p29
sg12
g13
sg14
VChemical element
p30
sa(dp31
g3
VChemical elements
p32
sg5
g6
sg7
Vhttp://dbpedia.org/resource/Category:Chemical_elements
p33
sg9
I29
sg10
g11
sg12
g13
sg14
VChemical element
p34
sa(dp35
g3
VChemical element
p36
sg5
g6
sg7
Vhttp://wibitaxonomy.org/Chemical_element
p37
sg9
I29
sg10
g19
sg12
g13
sg14
VChemical element
p38
sa(dp39
g3
VChemical elements
p40
sg5
g6
sg7
Vhttp://wibitaxonomy.org/Category%3AChemical_elements
p41
sg9
I29
sg10
g24
sg12
g13
sg14
VChemical element
p42
sa(dp43
g3
VCoolants
p44
sg5
g6
sg7
Vhttp://dbpedia.org/resource/Category:Coolants
p45
sg9
I16
sg10
g11
sg12
g13
sg14
Vcoolant
p46
sa(dp47
g3
VIndustrial gases
p48
sg5
g6
sg7
Vhttp://dbpedia.org/resource/Category:Industrial_gases
p49
sg9
I10
sg10
g11
sg12
g13
sg14
VIndustrial gas
p50
sa(dp51
g3
VChemical substance
p52
sg5
g6
sg7
Vhttp://wibitaxonomy.org/Chemical_substance
p53
sg9
I6
sg10
g19
sg12
g13
sg14
VChemical substance
p54
sa(dp55
g3
VChemical substances
p56
sg5
g6
sg7
Vhttp://wibitaxonomy.org/Category%3AChemical_substances
p57
sg9
I6
sg10
g24
sg12
g13
sg14
VChemical substance
p58
sa(dp59
g3
VDiatomic nonmetals
p60
sg5
g6
sg7
Vhttp://dbpedia.org/resource/Category:Diatomic_nonmetals
p61
sg9
I0
sg10
g29
sg12
g13
sg14
VDiatomic nonmetal
p62
sa(dp63
g3
VPnictogens
p64
sg5
g6
sg7
Vhttp://dbpedia.org/resource/Category:Pnictogens
p65
sg9
I0
sg10
g29
sg12
g13
sg14
Vpnictogens
p66
sa(dp67
g3
VWikipedia categories named after chemical elements
p68
sg5
g6
sg7
Vhttp://dbpedia.org/resource/Category:Wikipedia_categories_named_after_chemical_elements
p69
sg9
I0
sg10
g29
sg12
g13
sg14
VWikipedia categories named after chemical element
p70
sa(dp71
g3
VDiatomic nonmetals
p72
sg5
g6
sg7
Vhttp://dbpedia.org/resource/Category:Diatomic_nonmetals
p73
sg9
I0
sg10
g11
sg12
g13
sg14
VDiatomic nonmetal
p74
sa(dp75
g3
VArticles containing video clips
p76
sg5
g6
sg7
Vhttp://dbpedia.org/resource/Category:Articles_containing_video_clips
p77
sg9
I0
sg10
g11
sg12
g13
sg14
VArticles containing video clip
p78
sa(dp79
g3
VBiology and pharmacology of chemical elements
p80
sg5
g6
sg7
Vhttp://dbpedia.org/resource/Category:Biology_and_pharmacology_of_chemical_elements
p81
sg9
I0
sg10
g11
sg12
g13
sg14
VBiology and pharmacology of chemical element
p82
sa(dp83
g3
VDielectric gases
p84
sg5
g6
sg7
Vhttp://dbpedia.org/resource/Category:Dielectric_gases
p85
sg9
I0
sg10
g11
sg12
g13
sg14
VDielectric gas
p86
sa(dp87
g3
VLaser gain media
p88
sg5
g6
sg7
Vhttp://dbpedia.org/resource/Category:Laser_gain_media
p89
sg9
I0
sg10
g11
sg12
g13
sg14
VLaser gain medium
p90
sa(dp91
g3
VPnictogens
p92
sg5
g6
sg7
Vhttp://dbpedia.org/resource/Category:Pnictogens
p93
sg9
I0
sg10
g11
sg12
g13
sg14
Vpnictogens
p94
sa(dp95
g3
VGABAA receptor positive allosteric modulators
p96
sg5
g6
sg7
Vhttp://dbpedia.org/resource/Category:GABAA_receptor_positive_allosteric_modulators
p97
sg9
I0
sg10
g11
sg12
g13
sg14
VGABAA receptor positive allosteric modulators
p98
sa.