(lp1
(dp2
S'generalizedLabel'
p3
VSea
p4
sS'term'
p5
VNorth Sea
p6
sS'generalizedURI'
p7
Vhttp://wibitaxonomy.org/Sea
p8
sS'generalizedFreq'
p9
I27324
sS'subjectURI'
p10
Vhttp://wibitaxonomy.org/North_Sea
p11
sS'inputType'
p12
VLocation
p13
sS'generalizedLemma'
p14
Vsea
p15
sa(dp16
g3
VNorth Sea
p17
sg5
g6
sg7
Vhttp://dbpedia.org/resource/Category:North_Sea
p18
sg9
I795
sg10
Vhttp://dbpedia.org/resource/North_Sea
p19
sg12
g13
sg14
VNorth sea
p20
sa(dp21
g3
VEuropean seas
p22
sg5
g6
sg7
Vhttp://dbpedia.org/resource/Category:European_seas
p23
sg9
I44
sg10
g19
sg12
g13
sg14
VEuropean sea
p24
sa(dp25
g3
VEuropean seas
p26
sg5
g6
sg7
Vhttp://dbpedia.org/resource/Category:European_seas
p27
sg9
I44
sg10
Vhttp://dbpedia.org/resource/Category:North_Sea
p28
sg12
g13
sg14
VEuropean sea
p29
sa(dp30
g3
VMarginal sea
p31
sg5
g6
sg7
Vhttp://wibitaxonomy.org/Marginal_sea
p32
sg9
I38
sg10
g11
sg12
g13
sg14
VMarginal sea
p33
sa(dp34
g3
VBody of water
p35
sg5
g6
sg7
Vhttp://wibitaxonomy.org/Body_of_water
p36
sg9
I27
sg10
g11
sg12
g13
sg14
VBody of water
p37
sa(dp38
g3
VBodies of water of Belgium
p39
sg5
g6
sg7
Vhttp://dbpedia.org/resource/Category:Bodies_of_water_of_Belgium
p40
sg9
I0
sg10
g19
sg12
g13
sg14
VBodies of water of belgium
p41
sa(dp42
g3
VFederal waterways in Germany
p43
sg5
g6
sg7
Vhttp://dbpedia.org/resource/Category:Federal_waterways_in_Germany
p44
sg9
I0
sg10
g19
sg12
g13
sg14
VFederal waterways in germany
p45
sa(dp46
g3
VBodies of water of Norway
p47
sg5
g6
sg7
Vhttp://dbpedia.org/resource/Category:Bodies_of_water_of_Norway
p48
sg9
I0
sg10
g19
sg12
g13
sg14
VBodies of water of norway
p49
sa(dp50
g3
VBodies of water of the United Kingdom
p51
sg5
g6
sg7
Vhttp://dbpedia.org/resource/Category:Bodies_of_water_of_the_United_Kingdom
p52
sg9
I0
sg10
g19
sg12
g13
sg14
VBodies of water of the United kingdom
p53
sa(dp54
g3
VBodies of water of Germany
p55
sg5
g6
sg7
Vhttp://dbpedia.org/resource/Category:Bodies_of_water_of_Germany
p56
sg9
I0
sg10
g19
sg12
g13
sg14
VBodies of water of germany
p57
sa(dp58
g3
VBodies of water of the Netherlands
p59
sg5
g6
sg7
Vhttp://dbpedia.org/resource/Category:Bodies_of_water_of_the_Netherlands
p60
sg9
I0
sg10
g19
sg12
g13
sg14
VBodies of water of the netherlands
p61
sa(dp62
g3
VBodies of water of Denmark
p63
sg5
g6
sg7
Vhttp://dbpedia.org/resource/Category:Bodies_of_water_of_Denmark
p64
sg9
I0
sg10
g19
sg12
g13
sg14
VBodies of water of denmark
p65
sa(dp66
g3
VSeas of France
p67
sg5
g6
sg7
Vhttp://dbpedia.org/resource/Category:Seas_of_France
p68
sg9
I0
sg10
g19
sg12
g13
sg14
VSeas of france
p69
sa(dp70
g3
VBodies of water of Belgium
p71
sg5
g6
sg7
Vhttp://dbpedia.org/resource/Category:Bodies_of_water_of_Belgium
p72
sg9
I0
sg10
g28
sg12
g13
sg14
VBodies of water of belgium
p73
sa(dp74
g3
VWikipedia categories named after bodies of water
p75
sg5
g6
sg7
Vhttp://dbpedia.org/resource/Category:Wikipedia_categories_named_after_bodies_of_water
p76
sg9
I0
sg10
g28
sg12
g13
sg14
VWikipedia categories named after bodies of water
p77
sa(dp78
g3
VFederal waterways in Germany
p79
sg5
g6
sg7
Vhttp://dbpedia.org/resource/Category:Federal_waterways_in_Germany
p80
sg9
I0
sg10
g28
sg12
g13
sg14
VFederal waterways in germany
p81
sa(dp82
g3
VBodies of water of Norway
p83
sg5
g6
sg7
Vhttp://dbpedia.org/resource/Category:Bodies_of_water_of_Norway
p84
sg9
I0
sg10
g28
sg12
g13
sg14
VBodies of water of norway
p85
sa(dp86
g3
VBodies of water of the United Kingdom
p87
sg5
g6
sg7
Vhttp://dbpedia.org/resource/Category:Bodies_of_water_of_the_United_Kingdom
p88
sg9
I0
sg10
g28
sg12
g13
sg14
VBodies of water of the United kingdom
p89
sa(dp90
g3
VBodies of water of Germany
p91
sg5
g6
sg7
Vhttp://dbpedia.org/resource/Category:Bodies_of_water_of_Germany
p92
sg9
I0
sg10
g28
sg12
g13
sg14
VBodies of water of germany
p93
sa(dp94
g3
VBodies of water of the Netherlands
p95
sg5
g6
sg7
Vhttp://dbpedia.org/resource/Category:Bodies_of_water_of_the_Netherlands
p96
sg9
I0
sg10
g28
sg12
g13
sg14
VBodies of water of the netherlands
p97
sa(dp98
g3
VBodies of water of Denmark
p99
sg5
g6
sg7
Vhttp://dbpedia.org/resource/Category:Bodies_of_water_of_Denmark
p100
sg9
I0
sg10
g28
sg12
g13
sg14
VBodies of water of denmark
p101
sa(dp102
g3
Nsg5
g6
sg7
Vhttp://dbpedia.org/resource/Category:Bodies_of_waster_of_Norway
p103
sg9
I0
sg10
g28
sg12
g13
sg14
Nsa(dp104
g3
VSeas of France
p105
sg5
g6
sg7
Vhttp://dbpedia.org/resource/Category:Seas_of_France
p106
sg9
I0
sg10
g28
sg12
g13
sg14
VSeas of france
p107
sa(dp108
g3
VLandforms of Denmark
p109
sg5
g6
sg7
Vhttp://wibitaxonomy.org/Category%3ALandforms_of_Denmark
p110
sg9
I0
sg10
Vhttp://wibitaxonomy.org/Category%3ANorth_Sea
p111
sg12
g13
sg14
VLandforms of denmark
p112
sa(dp113
g3
VLandforms by country
p114
sg5
g6
sg7
Vhttp://wibitaxonomy.org/Category%3ALandforms_by_country
p115
sg9
I0
sg10
g111
sg12
g13
sg14
VLandforms by country
p116
sa(dp117
g3
VLandforms by place
p118
sg5
g6
sg7
Vhttp://wibitaxonomy.org/Category%3ALandforms_by_place
p119
sg9
I0
sg10
g111
sg12
g13
sg14
VLandforms by place
p120
sa.