(lp1
(dp2
S'generalizedLabel'
p3
VWater
p4
sS'term'
p5
VOrganic Lake
p6
sS'generalizedURI'
p7
Vhttp://wibitaxonomy.org/Water
p8
sS'generalizedFreq'
p9
I34933
sS'subjectURI'
p10
Vhttp://wibitaxonomy.org/Organic_Lake
p11
sS'inputType'
p12
VLocation
p13
sS'generalizedLemma'
p14
Vwater
p15
sa(dp16
g3
VLake
p17
sg5
g6
sg7
Vhttp://wibitaxonomy.org/Lake
p18
sg9
I12209
sg10
g11
sg12
g13
sg14
Vlake
p19
sa(dp20
g3
VStream
p21
sg5
g6
sg7
Vhttp://wibitaxonomy.org/Stream
p22
sg9
I3832
sg10
g11
sg12
g13
sg14
Vstream
p23
sa(dp24
g3
VMeromictic lakes
p25
sg5
g6
sg7
Vhttp://dbpedia.org/resource/Category:Meromictic_lakes
p26
sg9
I98
sg10
Vhttp://dbpedia.org/resource/Organic_Lake
p27
sg12
g13
sg14
VMeromictic lake
p28
sa(dp29
g3
VBody of water
p30
sg5
g6
sg7
Vhttp://wibitaxonomy.org/Body_of_water
p31
sg9
I27
sg10
g11
sg12
g13
sg14
VBody of water
p32
sa(dp33
g3
VChemical substance
p34
sg5
g6
sg7
Vhttp://wibitaxonomy.org/Chemical_substance
p35
sg9
I6
sg10
g11
sg12
g13
sg14
VChemical substance
p36
sa(dp37
g3
VLakes of Antarctica
p38
sg5
g6
sg7
Vhttp://dbpedia.org/resource/Category:Lakes_of_Antarctica
p39
sg9
I1
sg10
g27
sg12
g13
sg14
VLakes of antarctica
p40
sa.