(lp1
(dp2
S'generalizedLabel'
p3
VOxygen
p4
sS'term'
p5
Voxygen
p6
sS'generalizedURI'
p7
Vhttp://dbpedia.org/resource/Category:Oxygen
p8
sS'generalizedFreq'
p9
I10924
sS'subjectURI'
p10
Vhttp://dbpedia.org/resource/Oxygen
p11
sS'inputType'
p12
VCompound
p13
sS'generalizedLemma'
p14
Voxygen
p15
sa(dp16
g3
VMatter
p17
sg5
g6
sg7
Vhttp://wibitaxonomy.org/Matter
p18
sg9
I7091
sg10
Vhttp://wibitaxonomy.org/Oxygen
p19
sg12
g13
sg14
Vmatter
p20
sa(dp21
g3
VChemistry
p22
sg5
g6
sg7
Vhttp://wibitaxonomy.org/Category%3AChemistry
p23
sg9
I4471
sg10
Vhttp://wibitaxonomy.org/Category%3AOxygen
p24
sg12
g13
sg14
Vchemistry
p25
sa(dp26
g3
VChemical elements
p27
sg5
g6
sg7
Vhttp://dbpedia.org/resource/Category:Chemical_elements
p28
sg9
I29
sg10
g11
sg12
g13
sg14
VChemical element
p29
sa(dp30
g3
VChemical elements
p31
sg5
g6
sg7
Vhttp://dbpedia.org/resource/Category:Chemical_elements
p32
sg9
I29
sg10
Vhttp://dbpedia.org/resource/Category:Oxygen
p33
sg12
g13
sg14
VChemical element
p34
sa(dp35
g3
VChemical element
p36
sg5
g6
sg7
Vhttp://wibitaxonomy.org/Chemical_element
p37
sg9
I29
sg10
g19
sg12
g13
sg14
VChemical element
p38
sa(dp39
g3
VChemical elements
p40
sg5
g6
sg7
Vhttp://wibitaxonomy.org/Category%3AChemical_elements
p41
sg9
I29
sg10
g24
sg12
g13
sg14
VChemical element
p42
sa(dp43
g3
VOxidizing agents
p44
sg5
g6
sg7
Vhttp://dbpedia.org/resource/Category:Oxidizing_agents
p45
sg9
I15
sg10
g11
sg12
g13
sg14
VOxidizing agent
p46
sa(dp47
g3
VChemical substance
p48
sg5
g6
sg7
Vhttp://wibitaxonomy.org/Chemical_substance
p49
sg9
I6
sg10
g19
sg12
g13
sg14
VChemical substance
p50
sa(dp51
g3
VChemical substances
p52
sg5
g6
sg7
Vhttp://wibitaxonomy.org/Category%3AChemical_substances
p53
sg9
I6
sg10
g24
sg12
g13
sg14
VChemical substance
p54
sa(dp55
g3
VDiatomic nonmetals
p56
sg5
g6
sg7
Vhttp://dbpedia.org/resource/Category:Diatomic_nonmetals
p57
sg9
I0
sg10
g11
sg12
g13
sg14
VDiatomic nonmetal
p58
sa(dp59
g3
VBiology and pharmacology of chemical elements
p60
sg5
g6
sg7
Vhttp://dbpedia.org/resource/Category:Biology_and_pharmacology_of_chemical_elements
p61
sg9
I0
sg10
g11
sg12
g13
sg14
VBiology and pharmacology of chemical element
p62
sa(dp63
g3
VBreathing gases
p64
sg5
g6
sg7
Vhttp://dbpedia.org/resource/Category:Breathing_gases
p65
sg9
I0
sg10
g11
sg12
g13
sg14
VBreathing gas
p66
sa(dp67
g3
VChalcogens
p68
sg5
g6
sg7
Vhttp://dbpedia.org/resource/Category:Chalcogens
p69
sg9
I0
sg10
g11
sg12
g13
sg14
Vchalcogens
p70
sa(dp71
g3
VDiatomic nonmetals
p72
sg5
g6
sg7
Vhttp://dbpedia.org/resource/Category:Diatomic_nonmetals
p73
sg9
I0
sg10
g33
sg12
g13
sg14
VDiatomic nonmetal
p74
sa(dp75
g3
VChalcogens
p76
sg5
g6
sg7
Vhttp://dbpedia.org/resource/Category:Chalcogens
p77
sg9
I0
sg10
g33
sg12
g13
sg14
Vchalcogens
p78
sa(dp79
g3
VWikipedia categories named after chemical elements
p80
sg5
g6
sg7
Vhttp://dbpedia.org/resource/Category:Wikipedia_categories_named_after_chemical_elements
p81
sg9
I0
sg10
g33
sg12
g13
sg14
VWikipedia categories named after chemical element
p82
sa.