(lp1
(dp2
S'generalizedLabel'
p3
Vplant
p4
sS'term'
p5
VP. globosa
p6
sS'generalizedURI'
p7
Vhttp://dbpedia.org/ontology/Plant
p8
sS'generalizedFreq'
p9
I32772
sS'subjectURI'
p10
Vhttp://dbpedia.org/resource/Physaria_globosa
p11
sS'inputType'
p12
VSpecies
p13
sS'generalizedLemma'
p14
g4
sa(dp15
g3
Vplant
p16
sg5
g6
sg7
Vhttp://dbpedia.org/ontology/Plant
p17
sg9
I32772
sg10
Vhttp://dbpedia.org/resource/Parashorea_globosa
p18
sg12
g13
sg14
g16
sa(dp19
g3
Vanimal
p20
sg5
g6
sg7
Vhttp://dbpedia.org/ontology/Animal
p21
sg9
I7628
sg10
Vhttp://dbpedia.org/resource/Phuphania_globosa
p22
sg12
g13
sg14
g20
sa(dp23
g3
VAnimal
p24
sg5
g6
sg7
Vhttp://dbpedia.org/resource/Animal
p25
sg9
I7628
sg10
g22
sg12
g13
sg14
Vanimal
p26
sa(dp27
g3
Veukaryote
p28
sg5
g6
sg7
Vhttp://dbpedia.org/ontology/Eukaryote
p29
sg9
I1907
sg10
g11
sg12
g13
sg14
g28
sa(dp30
g3
Veukaryote
p31
sg5
g6
sg7
Vhttp://dbpedia.org/ontology/Eukaryote
p32
sg9
I1907
sg10
g22
sg12
g13
sg14
g31
sa(dp33
g3
Veukaryote
p34
sg5
g6
sg7
Vhttp://dbpedia.org/ontology/Eukaryote
p35
sg9
I1907
sg10
g18
sg12
g13
sg14
g34
sa(dp36
g3
Vmollusca
p37
sg5
g6
sg7
Vhttp://dbpedia.org/ontology/Mollusca
p38
sg9
I44
sg10
g22
sg12
g13
sg14
g37
sa(dp39
g3
VMollusca
p40
sg5
g6
sg7
Vhttp://dbpedia.org/resource/Mollusca
p41
sg9
I44
sg10
g22
sg12
g13
sg14
Vmollusca
p42
sa(dp43
g3
VBrassicaceae
p44
sg5
g6
sg7
Vhttp://dbpedia.org/resource/Category:Brassicaceae
p45
sg9
I25
sg10
g11
sg12
g13
sg14
Vbrassicaceae
p46
sa(dp47
g3
VGastropoda
p48
sg5
g6
sg7
Vhttp://dbpedia.org/resource/Gastropoda
p49
sg9
I21
sg10
g22
sg12
g13
sg14
Vgastropoda
p50
sa(dp51
g3
VPlantae
p52
sg5
g6
sg7
Vhttp://dbpedia.org/resource/Plantae
p53
sg9
I14
sg10
g11
sg12
g13
sg14
Vplantae
p54
sa(dp55
g3
VPlantae
p56
sg5
g6
sg7
Vhttp://dbpedia.org/resource/Plantae
p57
sg9
I14
sg10
g18
sg12
g13
sg14
Vplantae
p58
sa(dp59
g3
VEndangered plants
p60
sg5
g6
sg7
Vhttp://dbpedia.org/resource/Category:Endangered_plants
p61
sg9
I9
sg10
g18
sg12
g13
sg14
VEndangered plant
p62
sa(dp63
g3
Vspecies
p64
sg5
g6
sg7
Vhttp://dbpedia.org/ontology/Species
p65
sg9
I5
sg10
g11
sg12
g13
sg14
Vspecie
p66
sa(dp67
g3
Vspecies
p68
sg5
g6
sg7
Vhttp://dbpedia.org/ontology/Species
p69
sg9
I5
sg10
g22
sg12
g13
sg14
Vspecie
p70
sa(dp71
g3
Vspecies
p72
sg5
g6
sg7
Vhttp://dbpedia.org/ontology/Species
p73
sg9
I5
sg10
g18
sg12
g13
sg14
Vspecie
p74
sa(dp75
g3
VParashorea
p76
sg5
g6
sg7
Vhttp://dbpedia.org/resource/Category:Parashorea
p77
sg9
I3
sg10
g18
sg12
g13
sg14
Vparashorea
p78
sa(dp79
g3
VFlora of Indiana
p80
sg5
g6
sg7
Vhttp://dbpedia.org/resource/Category:Flora_of_Indiana
p81
sg9
I0
sg10
g11
sg12
g13
sg14
VFlora of indiana
p82
sa(dp83
g3
VFlora of Kentucky
p84
sg5
g6
sg7
Vhttp://dbpedia.org/resource/Category:Flora_of_Kentucky
p85
sg9
I0
sg10
g11
sg12
g13
sg14
VFlora of kentucky
p86
sa(dp87
g3
VFlora of Tennessee
p88
sg5
g6
sg7
Vhttp://dbpedia.org/resource/Category:Flora_of_Tennessee
p89
sg9
I0
sg10
g11
sg12
g13
sg14
VFlora of tennessee
p90
sa(dp91
g3
VEudicots
p92
sg5
g6
sg7
Vhttp://dbpedia.org/resource/Eudicots
p93
sg9
I0
sg10
g11
sg12
g13
sg14
Veudicots
p94
sa(dp95
g3
VDyakiidae
p96
sg5
g6
sg7
Vhttp://dbpedia.org/resource/Category:Dyakiidae
p97
sg9
I0
sg10
g22
sg12
g13
sg14
Vdyakiidae
p98
sa(dp99
g3
VEudicots
p100
sg5
g6
sg7
Vhttp://dbpedia.org/resource/Eudicots
p101
sg9
I0
sg10
g18
sg12
g13
sg14
Veudicots
p102
sa.