(lp1
(dp2
S'generalizedLabel'
p3
VOceans
p4
sS'term'
p5
VPacific Ocean
p6
sS'generalizedURI'
p7
Vhttp://dbpedia.org/resource/Category:Oceans
p8
sS'generalizedFreq'
p9
I39465
sS'subjectURI'
p10
Vhttp://dbpedia.org/resource/Pacific_Ocean
p11
sS'inputType'
p12
VLocation
p13
sS'generalizedLemma'
p14
Vocean
p15
sa(dp16
g3
VOceans
p17
sg5
g6
sg7
Vhttp://dbpedia.org/resource/Category:Oceans
p18
sg9
I39465
sg10
Vhttp://dbpedia.org/resource/Category:Pacific_Ocean
p19
sg12
g13
sg14
Vocean
p20
sa(dp21
g3
VOceans
p22
sg5
g6
sg7
Vhttp://wibitaxonomy.org/Category%3AOceans
p23
sg9
I39465
sg10
Vhttp://wibitaxonomy.org/Category%3APacific_Ocean
p24
sg12
g13
sg14
Vocean
p25
sa(dp26
g3
VEarth
p27
sg5
g6
sg7
Vhttp://wibitaxonomy.org/Earth
p28
sg9
I14589
sg10
Vhttp://wibitaxonomy.org/Pacific_Ocean
p29
sg12
g13
sg14
Vearth
p30
sa(dp31
g3
VPlanet
p32
sg5
g6
sg7
Vhttp://wibitaxonomy.org/Planet
p33
sg9
I4628
sg10
g29
sg12
g13
sg14
Vplanet
p34
sa(dp35
g3
VPacific Ocean
p36
sg5
g6
sg7
Vhttp://dbpedia.org/resource/Category:Pacific_Ocean
p37
sg9
I2136
sg10
g11
sg12
g13
sg14
VPacific ocean
p38
sa(dp39
g3
VAstronomical object
p40
sg5
g6
sg7
Vhttp://wibitaxonomy.org/Astronomical_object
p41
sg9
I1
sg10
g29
sg12
g13
sg14
VAstronomical object
p42
sa(dp43
g3
VBodies of water
p44
sg5
g6
sg7
Vhttp://wibitaxonomy.org/Category%3ABodies_of_water
p45
sg9
I1
sg10
g24
sg12
g13
sg14
VBodies of water
p46
sa(dp47
g3
VWikipedia categories named after bodies of water
p48
sg5
g6
sg7
Vhttp://dbpedia.org/resource/Category:Wikipedia_categories_named_after_bodies_of_water
p49
sg9
I0
sg10
g19
sg12
g13
sg14
VWikipedia categories named after bodies of water
p50
sa(dp51
g3
VWater and the environment
p52
sg5
g6
sg7
Vhttp://wibitaxonomy.org/Category%3AWater_and_the_environment
p53
sg9
I0
sg10
g24
sg12
g13
sg14
VWater and the environment
p54
sa.