(lp1
(dp2
S'generalizedLabel'
p3
Vplace
p4
sS'term'
p5
VPalmer Station
p6
sS'generalizedURI'
p7
Vhttp://dbpedia.org/ontology/Place
p8
sS'generalizedFreq'
p9
I6273
sS'subjectURI'
p10
Vhttp://dbpedia.org/resource/Palmer_Station
p11
sS'inputType'
p12
VLocation
p13
sS'generalizedLemma'
p14
g4
sa(dp15
g3
Vinfrastructure
p16
sg5
g6
sg7
Vhttp://dbpedia.org/ontology/Infrastructure
p17
sg9
I815
sg10
g11
sg12
g13
sg14
g16
sa(dp18
g3
VResearch station
p19
sg5
g6
sg7
Vhttp://wibitaxonomy.org/Research_station
p20
sg9
I242
sg10
Vhttp://wibitaxonomy.org/Palmer_Station
p21
sg12
g13
sg14
VResearch station
p22
sa(dp23
g3
Vairport
p24
sg5
g6
sg7
Vhttp://dbpedia.org/ontology/Airport
p25
sg9
I89
sg10
g11
sg12
g13
sg14
g24
sa(dp26
g3
Varchitectural structure
p27
sg5
g6
sg7
Vhttp://dbpedia.org/ontology/ArchitecturalStructure
p28
sg9
I2
sg10
g11
sg12
g13
sg14
Varchitectural structure
p29
sa(dp30
g3
VUnited States Antarctic Program
p31
sg5
g6
sg7
Vhttp://dbpedia.org/resource/Category:United_States_Antarctic_Program
p32
sg9
I1
sg10
g11
sg12
g13
sg14
VUnited States Antarctic program
p33
sa(dp34
g3
VMilitary base
p35
sg5
g6
sg7
Vhttp://wibitaxonomy.org/Military_base
p36
sg9
I1
sg10
g21
sg12
g13
sg14
VMilitary base
p37
sa(dp38
g3
VAirports in Antarctica
p39
sg5
g6
sg7
Vhttp://dbpedia.org/resource/Category:Airports_in_Antarctica
p40
sg9
I0
sg10
g11
sg12
g13
sg14
VAirports in antarctica
p41
sa(dp42
g3
VOutposts of Graham Land
p43
sg5
g6
sg7
Vhttp://dbpedia.org/resource/Category:Outposts_of_Graham_Land
p44
sg9
I0
sg10
g11
sg12
g13
sg14
VOutposts of Graham land
p45
sa(dp46
g3
VPalmer Archipelago
p47
sg5
g6
sg7
Vhttp://dbpedia.org/resource/Category:Palmer_Archipelago
p48
sg9
I0
sg10
g11
sg12
g13
sg14
VPalmer archipelago
p49
sa(dp50
g3
VArgentine Antarctica
p51
sg5
g6
sg7
Vhttp://dbpedia.org/resource/Category:Argentine_Antarctica
p52
sg9
I0
sg10
g11
sg12
g13
sg14
VArgentine antarctica
p53
sa(dp54
g3
VBritish Antarctic Territory
p55
sg5
g6
sg7
Vhttp://dbpedia.org/resource/Category:British_Antarctic_Territory
p56
sg9
I0
sg10
g11
sg12
g13
sg14
VBritish Antarctic territory
p57
sa(dp58
g3
VChilean Antarctic Territory
p59
sg5
g6
sg7
Vhttp://dbpedia.org/resource/Category:Chilean_Antarctic_Territory
p60
sg9
I0
sg10
g11
sg12
g13
sg14
VChilean Antarctic territory
p61
sa(dp62
g3
Nsg5
g6
sg7
Vhttp://dbpedia.org/ontology/Location
p63
sg9
I0
sg10
g11
sg12
g13
sg14
Nsa(dp64
g3
VRoyal Air Force station
p65
sg5
g6
sg7
Vhttp://wibitaxonomy.org/Royal_Air_Force_station
p66
sg9
I0
sg10
g21
sg12
g13
sg14
VRoyal Air Force station
p67
sa.