(lp1
(dp2
S'generalizedLabel'
p3
VSurnames
p4
sS'term'
p5
VPavin
p6
sS'generalizedURI'
p7
Vhttp://dbpedia.org/resource/Category:Surnames
p8
sS'generalizedFreq'
p9
I3
sS'subjectURI'
p10
Vhttp://dbpedia.org/resource/Pavin
p11
sS'inputType'
p12
VLocation
p13
sS'generalizedLemma'
p14
Vsurname
p15
sa.