(lp1
(dp2
S'generalizedLabel'
p3
Vplace
p4
sS'term'
p5
VPeru
p6
sS'generalizedURI'
p7
Vhttp://dbpedia.org/ontology/Place
p8
sS'generalizedFreq'
p9
I6273
sS'subjectURI'
p10
Vhttp://dbpedia.org/resource/Peru
p11
sS'inputType'
p12
VLocation
p13
sS'generalizedLemma'
p14
g4
sa(dp15
g3
Vcountry
p16
sg5
g6
sg7
Vhttp://dbpedia.org/ontology/Country
p17
sg9
I5355
sg10
g11
sg12
g13
sg14
g16
sa(dp18
g3
VCountry
p19
sg5
g6
sg7
Vhttp://wibitaxonomy.org/Country
p20
sg9
I5355
sg10
Vhttp://wibitaxonomy.org/Peru
p21
sg12
g13
sg14
Vcountry
p22
sa(dp23
g3
VPeru
p24
sg5
g6
sg7
Vhttp://dbpedia.org/resource/Category:Peru
p25
sg9
I528
sg10
g11
sg12
g13
sg14
Vperu
p26
sa(dp27
g3
VRepublics
p28
sg5
g6
sg7
Vhttp://dbpedia.org/resource/Category:Republics
p29
sg9
I409
sg10
g11
sg12
g13
sg14
Vrepublic
p30
sa(dp31
g3
VAmerican countries
p32
sg5
g6
sg7
Vhttp://wibitaxonomy.org/Category%3AAmerican_countries
p33
sg9
I10
sg10
Vhttp://wibitaxonomy.org/Category%3APeru
p34
sg12
g13
sg14
VAmerican country
p35
sa(dp36
g3
VSouth American countries
p37
sg5
g6
sg7
Vhttp://wibitaxonomy.org/Category%3ASouth_American_countries
p38
sg9
I3
sg10
g34
sg12
g13
sg14
VSouth American country
p39
sa(dp40
g3
Vpopulated place
p41
sg5
g6
sg7
Vhttp://dbpedia.org/ontology/PopulatedPlace
p42
sg9
I2
sg10
g11
sg12
g13
sg14
Vpopulated place
p43
sa(dp44
g3
VCountries in South America
p45
sg5
g6
sg7
Vhttp://dbpedia.org/resource/Category:Countries_in_South_America
p46
sg9
I1
sg10
g11
sg12
g13
sg14
VCountries in South america
p47
sa(dp48
g3
VLiberal democracies
p49
sg5
g6
sg7
Vhttp://dbpedia.org/resource/Category:Liberal_democracies
p50
sg9
I1
sg10
g11
sg12
g13
sg14
VLiberal democracy
p51
sa(dp52
g3
VCountries in South America
p53
sg5
g6
sg7
Vhttp://dbpedia.org/resource/Category:Countries_in_South_America
p54
sg9
I1
sg10
Vhttp://dbpedia.org/resource/Category:Peru
p55
sg12
g13
sg14
VCountries in South america
p56
sa(dp57
g3
VSpanish-speaking countries and territories
p58
sg5
g6
sg7
Vhttp://dbpedia.org/resource/Category:Spanish-speaking_countries_and_territories
p59
sg9
I0
sg10
g11
sg12
g13
sg14
VSpanish-speaking countries and territory
p60
sa(dp61
g3
VFormer Spanish colonies
p62
sg5
g6
sg7
Vhttp://dbpedia.org/resource/Category:Former_Spanish_colonies
p63
sg9
I0
sg10
g11
sg12
g13
sg14
VFormer Spanish colony
p64
sa(dp65
g3
VMember states of the Union of South American Nations
p66
sg5
g6
sg7
Vhttp://dbpedia.org/resource/Category:Member_states_of_the_Union_of_South_American_Nations
p67
sg9
I0
sg10
g11
sg12
g13
sg14
VMember states of the Union of South American nation
p68
sa(dp69
g3
VMember states of the United Nations
p70
sg5
g6
sg7
Vhttp://dbpedia.org/resource/Category:Member_states_of_the_United_Nations
p71
sg9
I0
sg10
g11
sg12
g13
sg14
VMember states of the United nation
p72
sa(dp73
g3
VStates and territories established in 1821
p74
sg5
g6
sg7
Vhttp://dbpedia.org/resource/Category:States_and_territories_established_in_1821
p75
sg9
I0
sg10
g11
sg12
g13
sg14
VStates and territories established in 1821
p76
sa(dp77
g3
VAndean Community
p78
sg5
g6
sg7
Vhttp://dbpedia.org/resource/Category:Andean_Community
p79
sg9
I0
sg10
g11
sg12
g13
sg14
VAndean community
p80
sa(dp81
g3
Nsg5
g6
sg7
Vhttp://dbpedia.org/ontology/Location
p82
sg9
I0
sg10
g11
sg12
g13
sg14
Nsa(dp83
g3
VWikipedia categories named after countries
p84
sg5
g6
sg7
Vhttp://dbpedia.org/resource/Category:Wikipedia_categories_named_after_countries
p85
sg9
I0
sg10
g55
sg12
g13
sg14
VWikipedia categories named after country
p86
sa(dp87
g3
VAndean Community
p88
sg5
g6
sg7
Vhttp://dbpedia.org/resource/Category:Andean_Community
p89
sg9
I0
sg10
g55
sg12
g13
sg14
VAndean community
p90
sa(dp91
g3
VPolitical geography
p92
sg5
g6
sg7
Vhttp://wibitaxonomy.org/Political_geography
p93
sg9
I0
sg10
g21
sg12
g13
sg14
VPolitical geography
p94
sa(dp95
g3
VField %5C%28mathematics%5C%29
p96
sg5
g6
sg7
Vhttp://wibitaxonomy.org/Field_%5C%28mathematics%5C%29
p97
sg9
I0
sg10
g21
sg12
g13
sg14
VField %5c%28mathematics%5c%29
p98
sa(dp99
g3
VCountries by continent
p100
sg5
g6
sg7
Vhttp://wibitaxonomy.org/Category%3ACountries_by_continent
p101
sg9
I0
sg10
g34
sg12
g13
sg14
VCountries by continent
p102
sa.