(lp1
(dp2
S'generalizedLabel'
p3
VDiatom
p4
sS'term'
p5
VPhaeodactylum tricornutum
p6
sS'generalizedURI'
p7
Vhttp://wibitaxonomy.org/Diatom
p8
sS'generalizedFreq'
p9
I4226
sS'subjectURI'
p10
Vhttp://wibitaxonomy.org/Phaeodactylum_tricornutum
p11
sS'inputType'
p12
VSpecies
p13
sS'generalizedLemma'
p14
Vdiatom
p15
sa(dp16
g3
VBacillariophyceae
p17
sg5
g6
sg7
Vhttp://dbpedia.org/resource/Bacillariophyceae
p18
sg9
I15
sg10
Vhttp://dbpedia.org/resource/Phaeodactylum_tricornutum
p19
sg12
g13
sg14
Vbacillariophyceae
p20
sa(dp21
g3
VHeterokontophyta
p22
sg5
g6
sg7
Vhttp://dbpedia.org/resource/Heterokontophyta
p23
sg9
I8
sg10
g19
sg12
g13
sg14
Vheterokontophyta
p24
sa(dp25
g3
VChromalveolata
p26
sg5
g6
sg7
Vhttp://dbpedia.org/resource/Chromalveolata
p27
sg9
I6
sg10
g19
sg12
g13
sg14
Vchromalveolata
p28
sa(dp29
g3
Vspecies
p30
sg5
g6
sg7
Vhttp://dbpedia.org/ontology/Species
p31
sg9
I5
sg10
g19
sg12
g13
sg14
Vspecie
p32
sa(dp33
g3
VNaviculales
p34
sg5
g6
sg7
Vhttp://dbpedia.org/resource/Category:Naviculales
p35
sg9
I1
sg10
g19
sg12
g13
sg14
Vnaviculales
p36
sa(dp37
g3
VHigh lipid content microalgae
p38
sg5
g6
sg7
Vhttp://dbpedia.org/resource/Category:High_lipid_content_microalgae
p39
sg9
I0
sg10
g19
sg12
g13
sg14
VHigh lipid content microalgae
p40
sa(dp41
g3
VEukaryotes with sequenced genomes
p42
sg5
g6
sg7
Vhttp://dbpedia.org/resource/Category:Eukaryotes_with_sequenced_genomes
p43
sg9
I0
sg10
g19
sg12
g13
sg14
VEukaryotes with sequenced genome
p44
sa.