(lp1
(dp2
S'generalizedLabel'
p3
VPhosphates
p4
sS'term'
p5
Vphosphate
p6
sS'generalizedURI'
p7
Vhttp://dbpedia.org/resource/Category:Phosphates
p8
sS'generalizedFreq'
p9
I3861
sS'subjectURI'
p10
Vhttp://dbpedia.org/resource/Phosphate
p11
sS'inputType'
p12
VCompound
p13
sS'generalizedLemma'
p14
Vphosphate
p15
sa(dp16
g3
VFunctional groups
p17
sg5
g6
sg7
Vhttp://dbpedia.org/resource/Category:Functional_groups
p18
sg9
I895
sg10
g11
sg12
g13
sg14
VFunctional group
p19
sa(dp20
g3
Vchemical compound
p21
sg5
g6
sg7
Vhttp://dbpedia.org/ontology/ChemicalCompound
p22
sg9
I76
sg10
g11
sg12
g13
sg14
Vchemical compound
p23
sa(dp24
g3
VChemical compound
p25
sg5
g6
sg7
Vhttp://wibitaxonomy.org/Chemical_compound
p26
sg9
I76
sg10
Vhttp://wibitaxonomy.org/Phosphate
p27
sg12
g13
sg14
VChemical compound
p28
sa(dp29
g3
VChemical compound
p30
sg5
g6
sg7
Vhttp://wibitaxonomy.org/Chemical_compound
p31
sg9
I76
sg10
g27
sg12
g13
sg14
VChemical compound
p32
sa(dp33
g3
VOrganophosphates
p34
sg5
g6
sg7
Vhttp://dbpedia.org/resource/Category:Organophosphates
p35
sg9
I27
sg10
g11
sg12
g13
sg14
Vorganophosphate
p36
sa(dp37
g3
Vchemical substance
p38
sg5
g6
sg7
Vhttp://dbpedia.org/ontology/ChemicalSubstance
p39
sg9
I6
sg10
g11
sg12
g13
sg14
Vchemical substance
p40
sa(dp41
g3
VIonic compound
p42
sg5
g6
sg7
Vhttp://wibitaxonomy.org/Ionic_compound
p43
sg9
I4
sg10
g27
sg12
g13
sg14
VIonic compound
p44
sa(dp45
g3
VIonic compound
p46
sg5
g6
sg7
Vhttp://wibitaxonomy.org/Ionic_compound
p47
sg9
I4
sg10
g27
sg12
g13
sg14
VIonic compound
p48
sa(dp49
g3
VWorld Digital Library related
p50
sg5
g6
sg7
Vhttp://dbpedia.org/resource/Category:World_Digital_Library_related
p51
sg9
I0
sg10
g11
sg12
g13
sg14
VWorld Digital Library related
p52
sa(dp53
g3
VPhosphorus oxoanions
p54
sg5
g6
sg7
Vhttp://dbpedia.org/resource/Category:Phosphorus_oxoanions
p55
sg9
I0
sg10
g11
sg12
g13
sg14
VPhosphorus oxoanions
p56
sa(dp57
g3
VSalt %5C%28chemistry%5C%29
p58
sg5
g6
sg7
Vhttp://wibitaxonomy.org/Salt_%5C%28chemistry%5C%29
p59
sg9
I0
sg10
g27
sg12
g13
sg14
VSalt %5c%28chemistry%5c%29
p60
sa(dp61
g3
VSalt %5C%28chemistry%5C%29
p62
sg5
g6
sg7
Vhttp://wibitaxonomy.org/Salt_%5C%28chemistry%5C%29
p63
sg9
I0
sg10
g27
sg12
g13
sg14
VSalt %5c%28chemistry%5c%29
p64
sa.