(lp1
(dp2
S'generalizedLabel'
p3
VMatter
p4
sS'term'
p5
Vphosphorus
p6
sS'generalizedURI'
p7
Vhttp://wibitaxonomy.org/Matter
p8
sS'generalizedFreq'
p9
I7091
sS'subjectURI'
p10
Vhttp://wibitaxonomy.org/Phosphorus
p11
sS'inputType'
p12
VCompound
p13
sS'generalizedLemma'
p14
Vmatter
p15
sa(dp16
g3
VChemistry
p17
sg5
g6
sg7
Vhttp://wibitaxonomy.org/Category%3AChemistry
p18
sg9
I4471
sg10
Vhttp://wibitaxonomy.org/Category%3APhosphorus
p19
sg12
g13
sg14
Vchemistry
p20
sa(dp21
g3
VPhosphorus
p22
sg5
g6
sg7
Vhttp://dbpedia.org/resource/Category:Phosphorus
p23
sg9
I3245
sg10
Vhttp://dbpedia.org/resource/Phosphorus
p24
sg12
g13
sg14
Vphosphorus
p25
sa(dp26
g3
VChemical elements
p27
sg5
g6
sg7
Vhttp://dbpedia.org/resource/Category:Chemical_elements
p28
sg9
I29
sg10
g24
sg12
g13
sg14
VChemical element
p29
sa(dp30
g3
VChemical elements
p31
sg5
g6
sg7
Vhttp://dbpedia.org/resource/Category:Chemical_elements
p32
sg9
I29
sg10
Vhttp://dbpedia.org/resource/Category:Phosphorus
p33
sg12
g13
sg14
VChemical element
p34
sa(dp35
g3
VChemical element
p36
sg5
g6
sg7
Vhttp://wibitaxonomy.org/Chemical_element
p37
sg9
I29
sg10
g11
sg12
g13
sg14
VChemical element
p38
sa(dp39
g3
VChemical elements
p40
sg5
g6
sg7
Vhttp://wibitaxonomy.org/Category%3AChemical_elements
p41
sg9
I29
sg10
g19
sg12
g13
sg14
VChemical element
p42
sa(dp43
g3
VChemical substance
p44
sg5
g6
sg7
Vhttp://wibitaxonomy.org/Chemical_substance
p45
sg9
I6
sg10
g11
sg12
g13
sg14
VChemical substance
p46
sa(dp47
g3
VChemical substances
p48
sg5
g6
sg7
Vhttp://wibitaxonomy.org/Category%3AChemical_substances
p49
sg9
I6
sg10
g19
sg12
g13
sg14
VChemical substance
p50
sa(dp51
g3
VBiology and pharmacology of chemical elements
p52
sg5
g6
sg7
Vhttp://dbpedia.org/resource/Category:Biology_and_pharmacology_of_chemical_elements
p53
sg9
I0
sg10
g24
sg12
g13
sg14
VBiology and pharmacology of chemical element
p54
sa(dp55
g3
VDietary minerals
p56
sg5
g6
sg7
Vhttp://dbpedia.org/resource/Category:Dietary_minerals
p57
sg9
I0
sg10
g24
sg12
g13
sg14
VDietary mineral
p58
sa(dp59
g3
VPolyatomic nonmetals
p60
sg5
g6
sg7
Vhttp://dbpedia.org/resource/Category:Polyatomic_nonmetals
p61
sg9
I0
sg10
g24
sg12
g13
sg14
VPolyatomic nonmetal
p62
sa(dp63
g3
VPnictogens
p64
sg5
g6
sg7
Vhttp://dbpedia.org/resource/Category:Pnictogens
p65
sg9
I0
sg10
g24
sg12
g13
sg14
Vpnictogens
p66
sa(dp67
g3
VPyrotechnic fuels
p68
sg5
g6
sg7
Vhttp://dbpedia.org/resource/Category:Pyrotechnic_fuels
p69
sg9
I0
sg10
g24
sg12
g13
sg14
VPyrotechnic fuel
p70
sa(dp71
g3
VPolyatomic nonmetals
p72
sg5
g6
sg7
Vhttp://dbpedia.org/resource/Category:Polyatomic_nonmetals
p73
sg9
I0
sg10
g33
sg12
g13
sg14
VPolyatomic nonmetal
p74
sa(dp75
g3
VPnictogens
p76
sg5
g6
sg7
Vhttp://dbpedia.org/resource/Category:Pnictogens
p77
sg9
I0
sg10
g33
sg12
g13
sg14
Vpnictogens
p78
sa(dp79
g3
VWikipedia categories named after chemical elements
p80
sg5
g6
sg7
Vhttp://dbpedia.org/resource/Category:Wikipedia_categories_named_after_chemical_elements
p81
sg9
I0
sg10
g33
sg12
g13
sg14
VWikipedia categories named after chemical element
p82
sa.