(lp1
(dp2
S'generalizedLabel'
p3
VContinental margin
p4
sS'term'
p5
VPorcupine Abyssal Plain
p6
sS'generalizedURI'
p7
Vhttp://wibitaxonomy.org/Continental_margin
p8
sS'generalizedFreq'
p9
I403
sS'subjectURI'
p10
Vhttp://wibitaxonomy.org/Porcupine_Abyssal_Plain
p11
sS'inputType'
p12
VLocation
p13
sS'generalizedLemma'
p14
VContinental margin
p15
sa(dp16
g3
VAbyssal plains
p17
sg5
g6
sg7
Vhttp://dbpedia.org/resource/Category:Abyssal_plains
p18
sg9
I104
sg10
Vhttp://dbpedia.org/resource/Porcupine_Abyssal_Plain
p19
sg12
g13
sg14
VAbyssal plain
p20
sa(dp21
g3
VLandforms of the Atlantic Ocean
p22
sg5
g6
sg7
Vhttp://dbpedia.org/resource/Category:Landforms_of_the_Atlantic_Ocean
p23
sg9
I0
sg10
g19
sg12
g13
sg14
VLandforms of the Atlantic ocean
p24
sa.