(lp1
(dp2
S'generalizedLabel'
p3
VBays of Antarctica
p4
sS'term'
p5
VPrydz Bay
p6
sS'generalizedURI'
p7
Vhttp://dbpedia.org/resource/Category:Bays_of_Antarctica
p8
sS'generalizedFreq'
p9
I0
sS'subjectURI'
p10
Vhttp://dbpedia.org/resource/Prydz_Bay
p11
sS'inputType'
p12
VLocation
p13
sS'generalizedLemma'
p14
VBays of antarctica
p15
sa(dp16
g3
VBays of Princess Elizabeth Land
p17
sg5
g6
sg7
Vhttp://dbpedia.org/resource/Category:Bays_of_Princess_Elizabeth_Land
p18
sg9
I0
sg10
g11
sg12
g13
sg14
VBays of Princess Elizabeth land
p19
sa(dp20
g3
VHeadlands and bays
p21
sg5
g6
sg7
Vhttp://wibitaxonomy.org/Headlands_and_bays
p22
sg9
I0
sg10
Vhttp://wibitaxonomy.org/Prydz_Bay
p23
sg12
g13
sg14
VHeadlands and bay
p24
sa.