(lp1
(dp2
S'generalizedLabel'
p3
VQuebec
p4
sS'term'
p5
VQuebec
p6
sS'generalizedURI'
p7
Vhttp://dbpedia.org/resource/Category:Quebec
p8
sS'generalizedFreq'
p9
I322
sS'subjectURI'
p10
Vhttp://dbpedia.org/resource/Quebec
p11
sS'inputType'
p12
VLocation
p13
sS'generalizedLemma'
p14
Vquebec
p15
sa(dp16
g3
VEastern Canada
p17
sg5
g6
sg7
Vhttp://dbpedia.org/resource/Category:Eastern_Canada
p18
sg9
I37
sg10
g11
sg12
g13
sg14
VEastern canada
p19
sa(dp20
g3
VEastern Canada
p21
sg5
g6
sg7
Vhttp://dbpedia.org/resource/Category:Eastern_Canada
p22
sg9
I37
sg10
Vhttp://dbpedia.org/resource/Category:Quebec
p23
sg12
g13
sg14
VEastern canada
p24
sa(dp25
g3
VProvinces and territories of Canada
p26
sg5
g6
sg7
Vhttp://dbpedia.org/resource/Category:Provinces_and_territories_of_Canada
p27
sg9
I0
sg10
g11
sg12
g13
sg14
VProvinces and territories of canada
p28
sa(dp29
g3
VRomance countries and territories
p30
sg5
g6
sg7
Vhttp://dbpedia.org/resource/Category:Romance_countries_and_territories
p31
sg9
I0
sg10
g11
sg12
g13
sg14
VRomance countries and territory
p32
sa(dp33
g3
VStates and territories established in 1867
p34
sg5
g6
sg7
Vhttp://dbpedia.org/resource/Category:States_and_territories_established_in_1867
p35
sg9
I0
sg10
g11
sg12
g13
sg14
VStates and territories established in 1867
p36
sa(dp37
g3
V1867 establishments in Canada
p38
sg5
g6
sg7
Vhttp://dbpedia.org/resource/Category:1867_establishments_in_Canada
p39
sg9
I0
sg10
g11
sg12
g13
sg14
V1867 establishments in canada
p40
sa(dp41
g3
VFrench Canada
p42
sg5
g6
sg7
Vhttp://dbpedia.org/resource/Category:French_Canada
p43
sg9
I0
sg10
g23
sg12
g13
sg14
VFrench canada
p44
sa(dp45
g3
VProvinces and territories of Canada
p46
sg5
g6
sg7
Vhttp://dbpedia.org/resource/Category:Provinces_and_territories_of_Canada
p47
sg9
I0
sg10
g23
sg12
g13
sg14
VProvinces and territories of canada
p48
sa(dp49
g3
VMember states of La Francophonie
p50
sg5
g6
sg7
Vhttp://dbpedia.org/resource/Category:Member_states_of_La_Francophonie
p51
sg9
I0
sg10
g23
sg12
g13
sg14
VMember states of La francophonie
p52
sa(dp53
g3
VRomance countries and territories
p54
sg5
g6
sg7
Vhttp://dbpedia.org/resource/Category:Romance_countries_and_territories
p55
sg9
I0
sg10
g23
sg12
g13
sg14
VRomance countries and territory
p56
sa(dp57
g3
VProvinces and territories of Canada
p58
sg5
g6
sg7
Vhttp://wibitaxonomy.org/Provinces_and_territories_of_Canada
p59
sg9
I0
sg10
Vhttp://wibitaxonomy.org/Quebec
p60
sg12
g13
sg14
VProvinces and territories of canada
p61
sa(dp62
g3
VSubdivisions of Gyeongju
p63
sg5
g6
sg7
Vhttp://wibitaxonomy.org/Subdivisions_of_Gyeongju
p64
sg9
I0
sg10
g60
sg12
g13
sg14
VSubdivisions of gyeongju
p65
sa(dp66
g3
VAdministrative divisions of South Korea
p67
sg5
g6
sg7
Vhttp://wibitaxonomy.org/Administrative_divisions_of_South_Korea
p68
sg9
I0
sg10
g60
sg12
g13
sg14
VAdministrative divisions of South korea
p69
sa(dp70
g3
VProvinces and territories of Canada
p71
sg5
g6
sg7
Vhttp://wibitaxonomy.org/Category%3AProvinces_and_territories_of_Canada
p72
sg9
I0
sg10
Vhttp://wibitaxonomy.org/Category%3AQuebec
p73
sg12
g13
sg14
VProvinces and territories of canada
p74
sa(dp75
g3
VCountry subdivisions of the Americas
p76
sg5
g6
sg7
Vhttp://wibitaxonomy.org/Category%3ACountry_subdivisions_of_the_Americas
p77
sg9
I0
sg10
g73
sg12
g13
sg14
VCountry subdivisions of the america
p78
sa(dp79
g3
VCountry subdivisions by continent
p80
sg5
g6
sg7
Vhttp://wibitaxonomy.org/Category%3ACountry_subdivisions_by_continent
p81
sg9
I0
sg10
g73
sg12
g13
sg14
VCountry subdivisions by continent
p82
sa.