(lp1
(dp2
S'generalizedLabel'
p3
Vregion
p4
sS'term'
p5
VQueensland
p6
sS'generalizedURI'
p7
Vhttp://dbpedia.org/ontology/Region
p8
sS'generalizedFreq'
p9
I25174
sS'subjectURI'
p10
Vhttp://dbpedia.org/resource/Queensland
p11
sS'inputType'
p12
VLocation
p13
sS'generalizedLemma'
p14
g4
sa(dp15
g3
Vplace
p16
sg5
g6
sg7
Vhttp://dbpedia.org/ontology/Place
p17
sg9
I6273
sg10
g11
sg12
g13
sg14
g16
sa(dp18
g3
VQueensland
p19
sg5
g6
sg7
Vhttp://dbpedia.org/resource/Category:Queensland
p20
sg9
I585
sg10
g11
sg12
g13
sg14
Vqueensland
p21
sa(dp22
g3
Vadministrative region
p23
sg5
g6
sg7
Vhttp://dbpedia.org/ontology/AdministrativeRegion
p24
sg9
I13
sg10
g11
sg12
g13
sg14
Vadministrative region
p25
sa(dp26
g3
Vpopulated place
p27
sg5
g6
sg7
Vhttp://dbpedia.org/ontology/PopulatedPlace
p28
sg9
I2
sg10
g11
sg12
g13
sg14
Vpopulated place
p29
sa(dp30
g3
VFormer British colonies
p31
sg5
g6
sg7
Vhttp://dbpedia.org/resource/Category:Former_British_colonies
p32
sg9
I1
sg10
g11
sg12
g13
sg14
VFormer British colony
p33
sa(dp34
g3
VStates and territories established in 1859
p35
sg5
g6
sg7
Vhttp://dbpedia.org/resource/Category:States_and_territories_established_in_1859
p36
sg9
I0
sg10
g11
sg12
g13
sg14
VStates and territories established in 1859
p37
sa(dp38
g3
VQueensland places with golf clubs and courses
p39
sg5
g6
sg7
Vhttp://dbpedia.org/resource/Category:Queensland_places_with_golf_clubs_and_courses
p40
sg9
I0
sg10
g11
sg12
g13
sg14
VQueensland places with golf clubs and course
p41
sa(dp42
g3
VStates and territories of Australia
p43
sg5
g6
sg7
Vhttp://dbpedia.org/resource/Category:States_and_territories_of_Australia
p44
sg9
I0
sg10
g11
sg12
g13
sg14
VStates and territories of australia
p45
sa(dp46
g3
Nsg5
g6
sg7
Vhttp://dbpedia.org/ontology/Location
p47
sg9
I0
sg10
g11
sg12
g13
sg14
Nsa(dp48
g3
VStates and territories of Australia
p49
sg5
g6
sg7
Vhttp://dbpedia.org/resource/Category:States_and_territories_of_Australia
p50
sg9
I0
sg10
Vhttp://dbpedia.org/resource/Category:Queensland
p51
sg12
g13
sg14
VStates and territories of australia
p52
sa(dp53
g3
VStates and territories of Australia
p54
sg5
g6
sg7
Vhttp://wibitaxonomy.org/States_and_territories_of_Australia
p55
sg9
I0
sg10
Vhttp://wibitaxonomy.org/Queensland
p56
sg12
g13
sg14
VStates and territories of australia
p57
sa(dp58
g3
VSubdivision %5C%28land%5C%29
p59
sg5
g6
sg7
Vhttp://wibitaxonomy.org/Subdivision_%5C%28land%5C%29
p60
sg9
I0
sg10
g56
sg12
g13
sg14
VSubdivision %5c%28land%5c%29
p61
sa(dp62
g3
VAct of Parliament
p63
sg5
g6
sg7
Vhttp://wibitaxonomy.org/Act_of_Parliament
p64
sg9
I0
sg10
g56
sg12
g13
sg14
VAct of parliament
p65
sa(dp66
g3
VStates and territories of Australia
p67
sg5
g6
sg7
Vhttp://wibitaxonomy.org/Category%3AStates_and_territories_of_Australia
p68
sg9
I0
sg10
Vhttp://wibitaxonomy.org/Category%3AQueensland
p69
sg12
g13
sg14
VStates and territories of australia
p70
sa(dp71
g3
VCountry subdivisions of Oceania
p72
sg5
g6
sg7
Vhttp://wibitaxonomy.org/Category%3ACountry_subdivisions_of_Oceania
p73
sg9
I0
sg10
g69
sg12
g13
sg14
VCountry subdivisions of oceania
p74
sa(dp75
g3
VCountry subdivisions by continent
p76
sg5
g6
sg7
Vhttp://wibitaxonomy.org/Category%3ACountry_subdivisions_by_continent
p77
sg9
I0
sg10
g69
sg12
g13
sg14
VCountry subdivisions by continent
p78
sa.