(lp1
(dp2
S'generalizedLabel'
p3
VAntarctic region
p4
sS'term'
p5
VRoss Sea
p6
sS'generalizedURI'
p7
Vhttp://dbpedia.org/resource/Category:Antarctic_region
p8
sS'generalizedFreq'
p9
I37
sS'subjectURI'
p10
Vhttp://dbpedia.org/resource/Ross_Sea
p11
sS'inputType'
p12
VLocation
p13
sS'generalizedLemma'
p14
VAntarctic region
p15
sa(dp16
g3
VSeas of the Southern Ocean
p17
sg5
g6
sg7
Vhttp://dbpedia.org/resource/Category:Seas_of_the_Southern_Ocean
p18
sg9
I0
sg10
g11
sg12
g13
sg14
VSeas of the Southern ocean
p19
sa(dp20
g3
VBays of Antarctica
p21
sg5
g6
sg7
Vhttp://dbpedia.org/resource/Category:Bays_of_Antarctica
p22
sg9
I0
sg10
g11
sg12
g13
sg14
VBays of antarctica
p23
sa(dp24
g3
VLandforms of the Ross Dependency
p25
sg5
g6
sg7
Vhttp://dbpedia.org/resource/Category:Landforms_of_the_Ross_Dependency
p26
sg9
I0
sg10
g11
sg12
g13
sg14
VLandforms of the Ross dependency
p27
sa(dp28
g3
VHeadlands and bays
p29
sg5
g6
sg7
Vhttp://wibitaxonomy.org/Headlands_and_bays
p30
sg9
I0
sg10
Vhttp://wibitaxonomy.org/Ross_Sea
p31
sg12
g13
sg14
VHeadlands and bay
p32
sa.