(lp1
(dp2
S'generalizedLabel'
p3
VName
p4
sS'term'
p5
Vsilicic acid
p6
sS'generalizedURI'
p7
Vhttp://wibitaxonomy.org/Name
p8
sS'generalizedFreq'
p9
I5205
sS'subjectURI'
p10
Vhttp://wibitaxonomy.org/Silicic_acid
p11
sS'inputType'
p12
VCompound
p13
sS'generalizedLemma'
p14
Vname
p15
sa(dp16
g3
VWord
p17
sg5
g6
sg7
Vhttp://wibitaxonomy.org/Word
p18
sg9
I1050
sg10
g11
sg12
g13
sg14
Vword
p19
sa(dp20
g3
Vchemical compound
p21
sg5
g6
sg7
Vhttp://dbpedia.org/ontology/ChemicalCompound
p22
sg9
I76
sg10
Vhttp://dbpedia.org/resource/Silicic_acid
p23
sg12
g13
sg14
Vchemical compound
p24
sa(dp25
g3
VMineral acids
p26
sg5
g6
sg7
Vhttp://dbpedia.org/resource/Category:Mineral_acids
p27
sg9
I8
sg10
g23
sg12
g13
sg14
VMineral acid
p28
sa(dp29
g3
Vchemical substance
p30
sg5
g6
sg7
Vhttp://dbpedia.org/ontology/ChemicalSubstance
p31
sg9
I6
sg10
g23
sg12
g13
sg14
Vchemical substance
p32
sa(dp33
g3
VSilanols
p34
sg5
g6
sg7
Vhttp://dbpedia.org/resource/Category:Silanols
p35
sg9
I0
sg10
g23
sg12
g13
sg14
Vsilanols
p36
sa.