(lp1
(dp2
S'generalizedLabel'
p3
Vchemical compound
p4
sS'term'
p5
Vsilica
p6
sS'generalizedURI'
p7
Vhttp://dbpedia.org/ontology/ChemicalCompound
p8
sS'generalizedFreq'
p9
I76
sS'subjectURI'
p10
Vhttp://dbpedia.org/resource/Silicon_dioxide
p11
sS'inputType'
p12
VCompound
p13
sS'generalizedLemma'
p14
Vchemical compound
p15
sa(dp16
g3
VSilicon dioxide
p17
sg5
g6
sg7
Vhttp://dbpedia.org/resource/Category:Silicon_dioxide
p18
sg9
I29
sg10
g11
sg12
g13
sg14
VSilicon dioxide
p19
sa(dp20
g3
VRefractory materials
p21
sg5
g6
sg7
Vhttp://dbpedia.org/resource/Category:Refractory_materials
p22
sg9
I7
sg10
g11
sg12
g13
sg14
VRefractory material
p23
sa(dp24
g3
Vchemical substance
p25
sg5
g6
sg7
Vhttp://dbpedia.org/ontology/ChemicalSubstance
p26
sg9
I6
sg10
g11
sg12
g13
sg14
Vchemical substance
p27
sa(dp28
g3
VCeramic materials
p29
sg5
g6
sg7
Vhttp://dbpedia.org/resource/Category:Ceramic_materials
p30
sg9
I4
sg10
g11
sg12
g13
sg14
VCeramic material
p31
sa(dp32
g3
VExcipients
p33
sg5
g6
sg7
Vhttp://dbpedia.org/resource/Category:Excipients
p34
sg9
I0
sg10
g11
sg12
g13
sg14
Vexcipients
p35
sa(dp36
g3
VIARC Group 1 carcinogens
p37
sg5
g6
sg7
Vhttp://dbpedia.org/resource/Category:IARC_Group_1_carcinogens
p38
sg9
I0
sg10
g11
sg12
g13
sg14
VIARC Group 1 carcinogen
p39
sa.