(lp1
(dp2
S'generalizedLabel'
p3
VMatter
p4
sS'term'
p5
Vsilicon
p6
sS'generalizedURI'
p7
Vhttp://wibitaxonomy.org/Matter
p8
sS'generalizedFreq'
p9
I7091
sS'subjectURI'
p10
Vhttp://wibitaxonomy.org/Silicon
p11
sS'inputType'
p12
VCompound
p13
sS'generalizedLemma'
p14
Vmatter
p15
sa(dp16
g3
VChemistry
p17
sg5
g6
sg7
Vhttp://wibitaxonomy.org/Category%3AChemistry
p18
sg9
I4471
sg10
Vhttp://wibitaxonomy.org/Category%3ASilicon
p19
sg12
g13
sg14
Vchemistry
p20
sa(dp21
g3
VSilicon
p22
sg5
g6
sg7
Vhttp://dbpedia.org/resource/Category:Silicon
p23
sg9
I1056
sg10
Vhttp://dbpedia.org/resource/Silicon
p24
sg12
g13
sg14
Vsilicon
p25
sa(dp26
g3
VReducing agents
p27
sg5
g6
sg7
Vhttp://dbpedia.org/resource/Category:Reducing_agents
p28
sg9
I55
sg10
g24
sg12
g13
sg14
VReducing agent
p29
sa(dp30
g3
VChemical elements
p31
sg5
g6
sg7
Vhttp://dbpedia.org/resource/Category:Chemical_elements
p32
sg9
I29
sg10
g24
sg12
g13
sg14
VChemical element
p33
sa(dp34
g3
VChemical elements
p35
sg5
g6
sg7
Vhttp://dbpedia.org/resource/Category:Chemical_elements
p36
sg9
I29
sg10
Vhttp://dbpedia.org/resource/Category:Silicon
p37
sg12
g13
sg14
VChemical element
p38
sa(dp39
g3
VChemical element
p40
sg5
g6
sg7
Vhttp://wibitaxonomy.org/Chemical_element
p41
sg9
I29
sg10
g11
sg12
g13
sg14
VChemical element
p42
sa(dp43
g3
VChemical elements
p44
sg5
g6
sg7
Vhttp://wibitaxonomy.org/Category%3AChemical_elements
p45
sg9
I29
sg10
g19
sg12
g13
sg14
VChemical element
p46
sa(dp47
g3
VSemiconductor materials
p48
sg5
g6
sg7
Vhttp://dbpedia.org/resource/Category:Semiconductor_materials
p49
sg9
I11
sg10
g24
sg12
g13
sg14
VSemiconductor material
p50
sa(dp51
g3
VSemiconductor materials
p52
sg5
g6
sg7
Vhttp://dbpedia.org/resource/Category:Semiconductor_materials
p53
sg9
I11
sg10
g37
sg12
g13
sg14
VSemiconductor material
p54
sa(dp55
g3
VChemical substance
p56
sg5
g6
sg7
Vhttp://wibitaxonomy.org/Chemical_substance
p57
sg9
I6
sg10
g11
sg12
g13
sg14
VChemical substance
p58
sa(dp59
g3
VChemical substances
p60
sg5
g6
sg7
Vhttp://wibitaxonomy.org/Category%3AChemical_substances
p61
sg9
I6
sg10
g19
sg12
g13
sg14
VChemical substance
p62
sa(dp63
g3
VBiology and pharmacology of chemical elements
p64
sg5
g6
sg7
Vhttp://dbpedia.org/resource/Category:Biology_and_pharmacology_of_chemical_elements
p65
sg9
I0
sg10
g24
sg12
g13
sg14
VBiology and pharmacology of chemical element
p66
sa(dp67
g3
VDietary minerals
p68
sg5
g6
sg7
Vhttp://dbpedia.org/resource/Category:Dietary_minerals
p69
sg9
I0
sg10
g24
sg12
g13
sg14
VDietary mineral
p70
sa(dp71
g3
VMetalloids
p72
sg5
g6
sg7
Vhttp://dbpedia.org/resource/Category:Metalloids
p73
sg9
I0
sg10
g24
sg12
g13
sg14
Vmetalloids
p74
sa(dp75
g3
VPyrotechnic fuels
p76
sg5
g6
sg7
Vhttp://dbpedia.org/resource/Category:Pyrotechnic_fuels
p77
sg9
I0
sg10
g24
sg12
g13
sg14
VPyrotechnic fuel
p78
sa(dp79
g3
VMetalloids
p80
sg5
g6
sg7
Vhttp://dbpedia.org/resource/Category:Metalloids
p81
sg9
I0
sg10
g37
sg12
g13
sg14
Vmetalloids
p82
sa(dp83
g3
VWikipedia categories named after chemical elements
p84
sg5
g6
sg7
Vhttp://dbpedia.org/resource/Category:Wikipedia_categories_named_after_chemical_elements
p85
sg9
I0
sg10
g37
sg12
g13
sg14
VWikipedia categories named after chemical element
p86
sa.