(lp1
(dp2
S'generalizedLabel'
p3
VEarth
p4
sS'term'
p5
VSouth Pacific Gyre
p6
sS'generalizedURI'
p7
Vhttp://wibitaxonomy.org/Earth
p8
sS'generalizedFreq'
p9
I14589
sS'subjectURI'
p10
Vhttp://wibitaxonomy.org/South_Pacific_Gyre
p11
sS'inputType'
p12
VLocation
p13
sS'generalizedLemma'
p14
Vearth
p15
sa(dp16
g3
VPlanet
p17
sg5
g6
sg7
Vhttp://wibitaxonomy.org/Planet
p18
sg9
I4628
sg10
g11
sg12
g13
sg14
Vplanet
p19
sa(dp20
g3
VPacific Ocean
p21
sg5
g6
sg7
Vhttp://dbpedia.org/resource/Category:Pacific_Ocean
p22
sg9
I2136
sg10
Vhttp://dbpedia.org/resource/South_Pacific_Gyre
p23
sg12
g13
sg14
VPacific ocean
p24
sa(dp25
g3
VPhysical oceanography
p26
sg5
g6
sg7
Vhttp://dbpedia.org/resource/Category:Physical_oceanography
p27
sg9
I115
sg10
g23
sg12
g13
sg14
VPhysical oceanography
p28
sa(dp29
g3
VOceanic gyres
p30
sg5
g6
sg7
Vhttp://dbpedia.org/resource/Category:Oceanic_gyres
p31
sg9
I18
sg10
g23
sg12
g13
sg14
VOceanic gyre
p32
sa(dp33
g3
VAstronomical object
p34
sg5
g6
sg7
Vhttp://wibitaxonomy.org/Astronomical_object
p35
sg9
I1
sg10
g11
sg12
g13
sg14
VAstronomical object
p36
sa.