(lp1
(dp2
S'generalizedLabel'
p3
VOceans
p4
sS'term'
p5
VSouthern Ocean
p6
sS'generalizedURI'
p7
Vhttp://dbpedia.org/resource/Category:Oceans
p8
sS'generalizedFreq'
p9
I39465
sS'subjectURI'
p10
Vhttp://dbpedia.org/resource/Category:Southern_Ocean
p11
sS'inputType'
p12
VLocation
p13
sS'generalizedLemma'
p14
Vocean
p15
sa(dp16
g3
VOceans
p17
sg5
g6
sg7
Vhttp://dbpedia.org/resource/Category:Oceans
p18
sg9
I39465
sg10
Vhttp://dbpedia.org/resource/Southern_Ocean
p19
sg12
g13
sg14
Vocean
p20
sa(dp21
g3
VSouth
p22
sg5
g6
sg7
Vhttp://wibitaxonomy.org/South
p23
sg9
I8221
sg10
Vhttp://wibitaxonomy.org/Southern_Ocean
p24
sg12
g13
sg14
Vsouth
p25
sa(dp26
g3
VSouthern Ocean
p27
sg5
g6
sg7
Vhttp://dbpedia.org/resource/Category:Southern_Ocean
p28
sg9
I2327
sg10
g19
sg12
g13
sg14
VSouthern ocean
p29
sa(dp30
g3
VWord
p31
sg5
g6
sg7
Vhttp://wibitaxonomy.org/Word
p32
sg9
I1050
sg10
g24
sg12
g13
sg14
Vword
p33
sa(dp34
g3
VSubantarctic
p35
sg5
g6
sg7
Vhttp://dbpedia.org/resource/Category:Subantarctic
p36
sg9
I223
sg10
g11
sg12
g13
sg14
Vsubantarctic
p37
sa(dp38
g3
VSubantarctic
p39
sg5
g6
sg7
Vhttp://wibitaxonomy.org/Category%3ASubantarctic
p40
sg9
I223
sg10
Vhttp://wibitaxonomy.org/Category%3ASouthern_Ocean
p41
sg12
g13
sg14
Vsubantarctic
p42
sa(dp43
g3
VMarine realms
p44
sg5
g6
sg7
Vhttp://dbpedia.org/resource/Category:Marine_realms
p45
sg9
I32
sg10
g11
sg12
g13
sg14
VMarine realm
p46
sa(dp47
g3
VAdjective
p48
sg5
g6
sg7
Vhttp://wibitaxonomy.org/Adjective
p49
sg9
I13
sg10
g24
sg12
g13
sg14
Vadjective
p50
sa(dp51
g3
VRegions of Antarctica
p52
sg5
g6
sg7
Vhttp://wibitaxonomy.org/Category%3ARegions_of_Antarctica
p53
sg9
I11
sg10
g41
sg12
g13
sg14
VRegions of antarctica
p54
sa(dp55
g3
VWikipedia categories named after bodies of water
p56
sg5
g6
sg7
Vhttp://dbpedia.org/resource/Category:Wikipedia_categories_named_after_bodies_of_water
p57
sg9
I0
sg10
g11
sg12
g13
sg14
VWikipedia categories named after bodies of water
p58
sa(dp59
g3
VExtreme points of Earth
p60
sg5
g6
sg7
Vhttp://dbpedia.org/resource/Category:Extreme_points_of_Earth
p61
sg9
I0
sg10
g11
sg12
g13
sg14
VExtreme points of earth
p62
sa(dp63
g3
VBodies of water of Antarctica
p64
sg5
g6
sg7
Vhttp://dbpedia.org/resource/Category:Bodies_of_water_of_Antarctica
p65
sg9
I0
sg10
g11
sg12
g13
sg14
VBodies of water of antarctica
p66
sa(dp67
g3
VLandforms of the Southern Ocean
p68
sg5
g6
sg7
Vhttp://dbpedia.org/resource/Category:Landforms_of_the_Southern_Ocean
p69
sg9
I0
sg10
g19
sg12
g13
sg14
VLandforms of the Southern ocean
p70
sa(dp71
g3
VAdverb
p72
sg5
g6
sg7
Vhttp://wibitaxonomy.org/Adverb
p73
sg9
I0
sg10
g24
sg12
g13
sg14
Vadverb
p74
sa(dp75
g3
VRegions by continent
p76
sg5
g6
sg7
Vhttp://wibitaxonomy.org/Category%3ARegions_by_continent
p77
sg9
I0
sg10
g41
sg12
g13
sg14
VRegions by continent
p78
sa.