(lp1
(dp2
S'generalizedLabel'
p3
VSea
p4
sS'term'
p5
VSouth China Sea
p6
sS'generalizedURI'
p7
Vhttp://wibitaxonomy.org/Sea
p8
sS'generalizedFreq'
p9
I9822
sS'subjectURI'
p10
Vhttp://wibitaxonomy.org/South_China_Sea
p11
sS'inputType'
p12
VLocation
p13
sS'generalizedLemma'
p14
Vsea
p15
sa(dp16
g3
VSouth China Sea
p17
sg5
g6
sg7
Vhttp://dbpedia.org/resource/Category:South_China_Sea
p18
sg9
I402
sg10
Vhttp://dbpedia.org/resource/South_China_Sea
p19
sg12
g13
sg14
VSouth China sea
p20
sa(dp21
g3
VMarginal sea
p22
sg5
g6
sg7
Vhttp://wibitaxonomy.org/Marginal_sea
p23
sg9
I38
sg10
g11
sg12
g13
sg14
VMarginal sea
p24
sa(dp25
g3
VBody of water
p26
sg5
g6
sg7
Vhttp://wibitaxonomy.org/Body_of_water
p27
sg9
I3
sg10
g11
sg12
g13
sg14
VBody of water
p28
sa(dp29
g3
VBodies of water of China
p30
sg5
g6
sg7
Vhttp://dbpedia.org/resource/Category:Bodies_of_water_of_China
p31
sg9
I0
sg10
Vhttp://dbpedia.org/resource/Category:South_China_Sea
p32
sg12
g13
sg14
VBodies of water of china
p33
sa(dp34
g3
VWikipedia categories named after bodies of water
p35
sg5
g6
sg7
Vhttp://dbpedia.org/resource/Category:Wikipedia_categories_named_after_bodies_of_water
p36
sg9
I0
sg10
g32
sg12
g13
sg14
VWikipedia categories named after bodies of water
p37
sa(dp38
g3
VGeography of Southeast Asia
p39
sg5
g6
sg7
Vhttp://dbpedia.org/resource/Category:Geography_of_Southeast_Asia
p40
sg9
I0
sg10
g32
sg12
g13
sg14
VGeography of Southeast asia
p41
sa(dp42
g3
VBodies of water of Vietnam
p43
sg5
g6
sg7
Vhttp://dbpedia.org/resource/Category:Bodies_of_water_of_Vietnam
p44
sg9
I0
sg10
g32
sg12
g13
sg14
VBodies of water of vietnam
p45
sa(dp46
g3
VBodies of water of Brunei
p47
sg5
g6
sg7
Vhttp://dbpedia.org/resource/Category:Bodies_of_water_of_Brunei
p48
sg9
I0
sg10
g32
sg12
g13
sg14
VBodies of water of brunei
p49
sa(dp50
g3
VSeas of the Philippines
p51
sg5
g6
sg7
Vhttp://dbpedia.org/resource/Category:Seas_of_the_Philippines
p52
sg9
I0
sg10
g32
sg12
g13
sg14
VSeas of the philippine
p53
sa(dp54
g3
VBodies of water of Hong Kong
p55
sg5
g6
sg7
Vhttp://dbpedia.org/resource/Category:Bodies_of_water_of_Hong_Kong
p56
sg9
I0
sg10
g32
sg12
g13
sg14
VBodies of water of Hong kong
p57
sa(dp58
g3
VMarginal seas of the Pacific Ocean
p59
sg5
g6
sg7
Vhttp://dbpedia.org/resource/Category:Marginal_seas_of_the_Pacific_Ocean
p60
sg9
I0
sg10
g32
sg12
g13
sg14
VMarginal seas of the Pacific ocean
p61
sa(dp62
g3
VSeas of Indonesia
p63
sg5
g6
sg7
Vhttp://dbpedia.org/resource/Category:Seas_of_Indonesia
p64
sg9
I0
sg10
g32
sg12
g13
sg14
VSeas of indonesia
p65
sa(dp66
g3
VBodies of water of Taiwan
p67
sg5
g6
sg7
Vhttp://dbpedia.org/resource/Category:Bodies_of_water_of_Taiwan
p68
sg9
I0
sg10
g32
sg12
g13
sg14
VBodies of water of taiwan
p69
sa(dp70
g3
VDisputed waters
p71
sg5
g6
sg7
Vhttp://dbpedia.org/resource/Category:Disputed_waters
p72
sg9
I0
sg10
g32
sg12
g13
sg14
VDisputed water
p73
sa(dp74
g3
VBodies of water of Singapore
p75
sg5
g6
sg7
Vhttp://dbpedia.org/resource/Category:Bodies_of_water_of_Singapore
p76
sg9
I0
sg10
g32
sg12
g13
sg14
VBodies of water of singapore
p77
sa(dp78
g3
VBodies of water of Macau
p79
sg5
g6
sg7
Vhttp://dbpedia.org/resource/Category:Bodies_of_water_of_Macau
p80
sg9
I0
sg10
g32
sg12
g13
sg14
VBodies of water of macau
p81
sa(dp82
g3
VSeas of Malaysia
p83
sg5
g6
sg7
Vhttp://dbpedia.org/resource/Category:Seas_of_Malaysia
p84
sg9
I0
sg10
g32
sg12
g13
sg14
VSeas of malaysia
p85
sa(dp86
g3
VBodies of water of China
p87
sg5
g6
sg7
Vhttp://dbpedia.org/resource/Category:Bodies_of_water_of_China
p88
sg9
I0
sg10
g19
sg12
g13
sg14
VBodies of water of china
p89
sa(dp90
g3
VTerritorial disputes of Malaysia
p91
sg5
g6
sg7
Vhttp://dbpedia.org/resource/Category:Territorial_disputes_of_Malaysia
p92
sg9
I0
sg10
g19
sg12
g13
sg14
VTerritorial disputes of malaysia
p93
sa(dp94
g3
VDisputed territories in Southeast Asia
p95
sg5
g6
sg7
Vhttp://dbpedia.org/resource/Category:Disputed_territories_in_Southeast_Asia
p96
sg9
I0
sg10
g19
sg12
g13
sg14
VDisputed territories in Southeast asia
p97
sa(dp98
g3
VTerritorial disputes of China
p99
sg5
g6
sg7
Vhttp://dbpedia.org/resource/Category:Territorial_disputes_of_China
p100
sg9
I0
sg10
g19
sg12
g13
sg14
VTerritorial disputes of china
p101
sa(dp102
g3
VBodies of water of Vietnam
p103
sg5
g6
sg7
Vhttp://dbpedia.org/resource/Category:Bodies_of_water_of_Vietnam
p104
sg9
I0
sg10
g19
sg12
g13
sg14
VBodies of water of vietnam
p105
sa(dp106
g3
VMalaysia\u2013Vietnam border
p107
sg5
g6
sg7
Vhttp://dbpedia.org/resource/Category:Malaysia\u2013Vietnam_border
p108
sg9
I0
sg10
g19
sg12
g13
sg14
VMalaysia\u2013Vietnam border
p109
sa(dp110
g3
VTerritorial disputes of the Philippines
p111
sg5
g6
sg7
Vhttp://dbpedia.org/resource/Category:Territorial_disputes_of_the_Philippines
p112
sg9
I0
sg10
g19
sg12
g13
sg14
VTerritorial disputes of the philippine
p113
sa(dp114
g3
VBodies of water of Brunei
p115
sg5
g6
sg7
Vhttp://dbpedia.org/resource/Category:Bodies_of_water_of_Brunei
p116
sg9
I0
sg10
g19
sg12
g13
sg14
VBodies of water of brunei
p117
sa(dp118
g3
VSeas of the Philippines
p119
sg5
g6
sg7
Vhttp://dbpedia.org/resource/Category:Seas_of_the_Philippines
p120
sg9
I0
sg10
g19
sg12
g13
sg14
VSeas of the philippine
p121
sa(dp122
g3
VBodies of water of Hong Kong
p123
sg5
g6
sg7
Vhttp://dbpedia.org/resource/Category:Bodies_of_water_of_Hong_Kong
p124
sg9
I0
sg10
g19
sg12
g13
sg14
VBodies of water of Hong kong
p125
sa(dp126
g3
VMarginal seas of the Pacific Ocean
p127
sg5
g6
sg7
Vhttp://dbpedia.org/resource/Category:Marginal_seas_of_the_Pacific_Ocean
p128
sg9
I0
sg10
g19
sg12
g13
sg14
VMarginal seas of the Pacific ocean
p129
sa(dp130
g3
VSeas of Indonesia
p131
sg5
g6
sg7
Vhttp://dbpedia.org/resource/Category:Seas_of_Indonesia
p132
sg9
I0
sg10
g19
sg12
g13
sg14
VSeas of indonesia
p133
sa(dp134
g3
VBodies of water of Taiwan
p135
sg5
g6
sg7
Vhttp://dbpedia.org/resource/Category:Bodies_of_water_of_Taiwan
p136
sg9
I0
sg10
g19
sg12
g13
sg14
VBodies of water of taiwan
p137
sa(dp138
g3
VTerritorial disputes of Vietnam
p139
sg5
g6
sg7
Vhttp://dbpedia.org/resource/Category:Territorial_disputes_of_Vietnam
p140
sg9
I0
sg10
g19
sg12
g13
sg14
VTerritorial disputes of vietnam
p141
sa(dp142
g3
VBodies of water of Singapore
p143
sg5
g6
sg7
Vhttp://dbpedia.org/resource/Category:Bodies_of_water_of_Singapore
p144
sg9
I0
sg10
g19
sg12
g13
sg14
VBodies of water of singapore
p145
sa(dp146
g3
VTerritorial disputes of the Republic of China
p147
sg5
g6
sg7
Vhttp://dbpedia.org/resource/Category:Territorial_disputes_of_the_Republic_of_China
p148
sg9
I0
sg10
g19
sg12
g13
sg14
VTerritorial disputes of the Republic of china
p149
sa(dp150
g3
VIndonesia\u2013Vietnam border
p151
sg5
g6
sg7
Vhttp://dbpedia.org/resource/Category:Indonesia\u2013Vietnam_border
p152
sg9
I0
sg10
g19
sg12
g13
sg14
VIndonesia\u2013Vietnam border
p153
sa(dp154
g3
VMalaysia\u2013Vietnam border
p155
sg5
g6
sg7
Vhttp://dbpedia.org/resource/Category:Malaysia%E2%80%93Vietnam_border
p156
sg9
I0
sg10
g19
sg12
g13
sg14
VMalaysia\u2013Vietnam border
p157
sa(dp158
g3
VIndonesia\u2013Vietnam border
p159
sg5
g6
sg7
Vhttp://dbpedia.org/resource/Category:Indonesia%E2%80%93Vietnam_border
p160
sg9
I0
sg10
g19
sg12
g13
sg14
VIndonesia\u2013Vietnam border
p161
sa(dp162
g3
VBodies of water of Macau
p163
sg5
g6
sg7
Vhttp://dbpedia.org/resource/Category:Bodies_of_water_of_Macau
p164
sg9
I0
sg10
g19
sg12
g13
sg14
VBodies of water of macau
p165
sa(dp166
g3
VSeas of Malaysia
p167
sg5
g6
sg7
Vhttp://dbpedia.org/resource/Category:Seas_of_Malaysia
p168
sg9
I0
sg10
g19
sg12
g13
sg14
VSeas of malaysia
p169
sa(dp170
g3
VIndonesia%E2%80%93Vietnam border
p171
sg5
g6
sg7
Vhttp://wibitaxonomy.org/Category%3AIndonesia%E2%80%93Vietnam_border
p172
sg9
I0
sg10
Vhttp://wibitaxonomy.org/Category%3ASouth_China_Sea
p173
sg12
g13
sg14
VIndonesia%E2%80%93Vietnam border
p174
sa(dp175
g3
VBorders of Vietnam
p176
sg5
g6
sg7
Vhttp://wibitaxonomy.org/Category%3ABorders_of_Vietnam
p177
sg9
I0
sg10
g173
sg12
g13
sg14
VBorders of vietnam
p178
sa(dp179
g3
VBorders by country
p180
sg5
g6
sg7
Vhttp://wibitaxonomy.org/Category%3ABorders_by_country
p181
sg9
I0
sg10
g173
sg12
g13
sg14
VBorders by country
p182
sa.