(lp1
(dp2
S'generalizedLabel'
p3
VResearch
p4
sS'term'
p5
VSouthern California
p6
sS'generalizedURI'
p7
Vhttp://wibitaxonomy.org/Research
p8
sS'generalizedFreq'
p9
I16222
sS'subjectURI'
p10
Vhttp://wibitaxonomy.org/Southern_California
p11
sS'inputType'
p12
VLocation
p13
sS'generalizedLemma'
p14
Vresearch
p15
sa(dp16
g3
Vplace
p17
sg5
g6
sg7
Vhttp://dbpedia.org/ontology/Place
p18
sg9
I6273
sg10
Vhttp://dbpedia.org/resource/Southern_California
p19
sg12
g13
sg14
g17
sa(dp20
g3
Vsettlement
p21
sg5
g6
sg7
Vhttp://dbpedia.org/ontology/Settlement
p22
sg9
I591
sg10
g19
sg12
g13
sg14
g21
sa(dp23
g3
VSouthern California
p24
sg5
g6
sg7
Vhttp://dbpedia.org/resource/Category:Southern_California
p25
sg9
I337
sg10
g19
sg12
g13
sg14
VSouthern california
p26
sa(dp27
g3
VRegions of California
p28
sg5
g6
sg7
Vhttp://dbpedia.org/resource/Category:Regions_of_California
p29
sg9
I2
sg10
g19
sg12
g13
sg14
VRegions of california
p30
sa(dp31
g3
Vpopulated place
p32
sg5
g6
sg7
Vhttp://dbpedia.org/ontology/PopulatedPlace
p33
sg9
I2
sg10
g19
sg12
g13
sg14
Vpopulated place
p34
sa(dp35
g3
VRegions of California
p36
sg5
g6
sg7
Vhttp://dbpedia.org/resource/Category:Regions_of_California
p37
sg9
I2
sg10
Vhttp://dbpedia.org/resource/Category:Southern_California
p38
sg12
g13
sg14
VRegions of california
p39
sa(dp40
g3
VRegions of California
p41
sg5
g6
sg7
Vhttp://wibitaxonomy.org/Category%3ARegions_of_California
p42
sg9
I2
sg10
Vhttp://wibitaxonomy.org/Category%3ASouthern_California
p43
sg12
g13
sg14
VRegions of california
p44
sa(dp45
g3
VMegapolitan areas of California
p46
sg5
g6
sg7
Vhttp://dbpedia.org/resource/Category:Megapolitan_areas_of_California
p47
sg9
I0
sg10
g19
sg12
g13
sg14
VMegapolitan areas of california
p48
sa(dp49
g3
Nsg5
g6
sg7
Vhttp://dbpedia.org/ontology/Location
p50
sg9
I0
sg10
g19
sg12
g13
sg14
Nsa(dp51
g3
VMegaregions of the United States
p52
sg5
g6
sg7
Vhttp://wibitaxonomy.org/Megaregions_of_the_United_States
p53
sg9
I0
sg10
g11
sg12
g13
sg14
VMegaregions of the United state
p54
sa(dp55
g3
VWork %5C%28physics%5C%29
p56
sg5
g6
sg7
Vhttp://wibitaxonomy.org/Work_%5C%28physics%5C%29
p57
sg9
I0
sg10
g11
sg12
g13
sg14
VWork %5c%28physics%5c%29
p58
sa(dp59
g3
VRegions of the United States by state
p60
sg5
g6
sg7
Vhttp://wibitaxonomy.org/Category%3ARegions_of_the_United_States_by_state
p61
sg9
I0
sg10
g43
sg12
g13
sg14
VRegions of the United States by state
p62
sa(dp63
g3
VRegions of the United States
p64
sg5
g6
sg7
Vhttp://wibitaxonomy.org/Category%3ARegions_of_the_United_States
p65
sg9
I0
sg10
g43
sg12
g13
sg14
VRegions of the United state
p66
sa.