(lp1
(dp2
S'generalizedLabel'
p3
Vplace
p4
sS'term'
p5
VSpain
p6
sS'generalizedURI'
p7
Vhttp://dbpedia.org/ontology/Place
p8
sS'generalizedFreq'
p9
I6273
sS'subjectURI'
p10
Vhttp://dbpedia.org/resource/Spain
p11
sS'inputType'
p12
VLocation
p13
sS'generalizedLemma'
p14
g4
sa(dp15
g3
Vcountry
p16
sg5
g6
sg7
Vhttp://dbpedia.org/ontology/Country
p17
sg9
I5355
sg10
g11
sg12
g13
sg14
g16
sa(dp18
g3
VOrganization
p19
sg5
g6
sg7
Vhttp://wibitaxonomy.org/Organization
p20
sg9
I2805
sg10
Vhttp://wibitaxonomy.org/Spain
p21
sg12
g13
sg14
Vorganization
p22
sa(dp23
g3
VSpain
p24
sg5
g6
sg7
Vhttp://dbpedia.org/resource/Category:Spain
p25
sg9
I957
sg10
g11
sg12
g13
sg14
Vspain
p26
sa(dp27
g3
VEntity
p28
sg5
g6
sg7
Vhttp://wibitaxonomy.org/Entity
p29
sg9
I375
sg10
g21
sg12
g13
sg14
Ventity
p30
sa(dp31
g3
VWestern Europe
p32
sg5
g6
sg7
Vhttp://dbpedia.org/resource/Category:Western_Europe
p33
sg9
I168
sg10
g11
sg12
g13
sg14
VWestern europe
p34
sa(dp35
g3
VWestern Europe
p36
sg5
g6
sg7
Vhttp://dbpedia.org/resource/Category:Western_Europe
p37
sg9
I168
sg10
Vhttp://dbpedia.org/resource/Category:Spain
p38
sg12
g13
sg14
VWestern europe
p39
sa(dp40
g3
VSouthern Europe
p41
sg5
g6
sg7
Vhttp://dbpedia.org/resource/Category:Southern_Europe
p42
sg9
I115
sg10
g11
sg12
g13
sg14
VSouthern europe
p43
sa(dp44
g3
VSouthern Europe
p45
sg5
g6
sg7
Vhttp://dbpedia.org/resource/Category:Southern_Europe
p46
sg9
I115
sg10
g38
sg12
g13
sg14
VSouthern europe
p47
sa(dp48
g3
VMember state
p49
sg5
g6
sg7
Vhttp://wibitaxonomy.org/Member_state
p50
sg9
I72
sg10
g21
sg12
g13
sg14
VMember state
p51
sa(dp52
g3
VIberian Peninsula
p53
sg5
g6
sg7
Vhttp://dbpedia.org/resource/Category:Iberian_Peninsula
p54
sg9
I69
sg10
g38
sg12
g13
sg14
VIberian peninsula
p55
sa(dp56
g3
VSouthwestern Europe
p57
sg5
g6
sg7
Vhttp://dbpedia.org/resource/Category:Southwestern_Europe
p58
sg9
I10
sg10
g11
sg12
g13
sg14
VSouthwestern europe
p59
sa(dp60
g3
VSouthwestern Europe
p61
sg5
g6
sg7
Vhttp://dbpedia.org/resource/Category:Southwestern_Europe
p62
sg9
I10
sg10
g38
sg12
g13
sg14
VSouthwestern europe
p63
sa(dp64
g3
VCountries in Europe
p65
sg5
g6
sg7
Vhttp://dbpedia.org/resource/Category:Countries_in_Europe
p66
sg9
I8
sg10
g11
sg12
g13
sg14
VCountries in europe
p67
sa(dp68
g3
VMember states of the European Union
p69
sg5
g6
sg7
Vhttp://dbpedia.org/resource/Category:Member_states_of_the_European_Union
p70
sg9
I8
sg10
g11
sg12
g13
sg14
VMember states of the European union
p71
sa(dp72
g3
VCountries in Europe
p73
sg5
g6
sg7
Vhttp://dbpedia.org/resource/Category:Countries_in_Europe
p74
sg9
I8
sg10
g38
sg12
g13
sg14
VCountries in europe
p75
sa(dp76
g3
VMember states of the European Union
p77
sg5
g6
sg7
Vhttp://dbpedia.org/resource/Category:Member_states_of_the_European_Union
p78
sg9
I8
sg10
g38
sg12
g13
sg14
VMember states of the European union
p79
sa(dp80
g3
Vpopulated place
p81
sg5
g6
sg7
Vhttp://dbpedia.org/ontology/PopulatedPlace
p82
sg9
I2
sg10
g11
sg12
g13
sg14
Vpopulated place
p83
sa(dp84
g3
VLiberal democracies
p85
sg5
g6
sg7
Vhttp://dbpedia.org/resource/Category:Liberal_democracies
p86
sg9
I1
sg10
g11
sg12
g13
sg14
VLiberal democracy
p87
sa(dp88
g3
VSovereign state
p89
sg5
g6
sg7
Vhttp://wibitaxonomy.org/Sovereign_state
p90
sg9
I1
sg10
g21
sg12
g13
sg14
VSovereign state
p91
sa(dp92
g3
VSpanish-speaking countries and territories
p93
sg5
g6
sg7
Vhttp://dbpedia.org/resource/Category:Spanish-speaking_countries_and_territories
p94
sg9
I0
sg10
g11
sg12
g13
sg14
VSpanish-speaking countries and territory
p95
sa(dp96
g3
VMember states of the United Nations
p97
sg5
g6
sg7
Vhttp://dbpedia.org/resource/Category:Member_states_of_the_United_Nations
p98
sg9
I0
sg10
g11
sg12
g13
sg14
VMember states of the United nation
p99
sa(dp100
g3
VMember states of the Union for the Mediterranean
p101
sg5
g6
sg7
Vhttp://dbpedia.org/resource/Category:Member_states_of_the_Union_for_the_Mediterranean
p102
sg9
I0
sg10
g11
sg12
g13
sg14
VMember states of the Union for the mediterranean
p103
sa(dp104
g3
VConstitutional monarchies
p105
sg5
g6
sg7
Vhttp://dbpedia.org/resource/Category:Constitutional_monarchies
p106
sg9
I0
sg10
g11
sg12
g13
sg14
VConstitutional monarchy
p107
sa(dp108
g3
VMember states of NATO
p109
sg5
g6
sg7
Vhttp://dbpedia.org/resource/Category:Member_states_of_NATO
p110
sg9
I0
sg10
g11
sg12
g13
sg14
VMember states of nato
p111
sa(dp112
g3
VMember states of the Council of Europe
p113
sg5
g6
sg7
Vhttp://dbpedia.org/resource/Category:Member_states_of_the_Council_of_Europe
p114
sg9
I0
sg10
g11
sg12
g13
sg14
VMember states of the Council of europe
p115
sa(dp116
g3
VRomance countries and territories
p117
sg5
g6
sg7
Vhttp://dbpedia.org/resource/Category:Romance_countries_and_territories
p118
sg9
I0
sg10
g11
sg12
g13
sg14
VRomance countries and territory
p119
sa(dp120
g3
Nsg5
g6
sg7
Vhttp://dbpedia.org/resource/Category:List_of_Mediterranean_countries
p121
sg9
I0
sg10
g11
sg12
g13
sg14
Nsa(dp122
g3
Nsg5
g6
sg7
Vhttp://dbpedia.org/ontology/Location
p123
sg9
I0
sg10
g11
sg12
g13
sg14
Nsa(dp124
g3
VSpanish-speaking countries and territories
p125
sg5
g6
sg7
Vhttp://dbpedia.org/resource/Category:Spanish-speaking_countries_and_territories
p126
sg9
I0
sg10
g38
sg12
g13
sg14
VSpanish-speaking countries and territory
p127
sa(dp128
g3
VWikipedia categories named after countries
p129
sg5
g6
sg7
Vhttp://dbpedia.org/resource/Category:Wikipedia_categories_named_after_countries
p130
sg9
I0
sg10
g38
sg12
g13
sg14
VWikipedia categories named after country
p131
sa(dp132
g3
VRomance countries and territories
p133
sg5
g6
sg7
Vhttp://dbpedia.org/resource/Category:Romance_countries_and_territories
p134
sg9
I0
sg10
g38
sg12
g13
sg14
VRomance countries and territory
p135
sa(dp136
g3
VMember state of the European Union
p137
sg5
g6
sg7
Vhttp://wibitaxonomy.org/Member_state_of_the_European_Union
p138
sg9
I0
sg10
g21
sg12
g13
sg14
VMember state of the European union
p139
sa(dp140
g3
VStates and territories of Australia
p141
sg5
g6
sg7
Vhttp://wibitaxonomy.org/States_and_territories_of_Australia
p142
sg9
I0
sg10
g21
sg12
g13
sg14
VStates and territories of australia
p143
sa(dp144
g3
VSpanish%5C-speaking countries
p145
sg5
g6
sg7
Vhttp://wibitaxonomy.org/Category%3ASpanish%5C-speaking_countries
p146
sg9
I0
sg10
Vhttp://wibitaxonomy.org/Category%3ASpain
p147
sg12
g13
sg14
VSpanish%5C-speaking country
p148
sa(dp149
g3
VSpanish language
p150
sg5
g6
sg7
Vhttp://wibitaxonomy.org/Category%3ASpanish_language
p151
sg9
I0
sg10
g147
sg12
g13
sg14
VSpanish language
p152
sa(dp153
g3
VLanguages of Paraguay
p154
sg5
g6
sg7
Vhttp://wibitaxonomy.org/Category%3ALanguages_of_Paraguay
p155
sg9
I0
sg10
g147
sg12
g13
sg14
VLanguages of paraguay
p156
sa.