(lp1
(dp2
S'generalizedLabel'
p3
VMaterials
p4
sS'term'
p5
Vsugar
p6
sS'generalizedURI'
p7
Vhttp://wibitaxonomy.org/Category%3AMaterials
p8
sS'generalizedFreq'
p9
I11302
sS'subjectURI'
p10
Vhttp://wibitaxonomy.org/Category%3ASugar
p11
sS'inputType'
p12
VCompound
p13
sS'generalizedLemma'
p14
Vmaterial
p15
sa(dp16
g3
VFoods
p17
sg5
g6
sg7
Vhttp://dbpedia.org/resource/Category:Foods
p18
sg9
I9553
sg10
Vhttp://dbpedia.org/resource/Category:Sugar
p19
sg12
g13
sg14
Vfood
p20
sa(dp21
g3
VName
p22
sg5
g6
sg7
Vhttp://wibitaxonomy.org/Name
p23
sg9
I5205
sg10
Vhttp://wibitaxonomy.org/Sugar
p24
sg12
g13
sg14
Vname
p25
sa(dp26
g3
VSugar
p27
sg5
g6
sg7
Vhttp://dbpedia.org/resource/Category:Sugar
p28
sg9
I1682
sg10
Vhttp://dbpedia.org/resource/Sugar
p29
sg12
g13
sg14
Vsugar
p30
sa(dp31
g3
VCarbohydrates
p32
sg5
g6
sg7
Vhttp://dbpedia.org/resource/Category:Carbohydrates
p33
sg9
I1353
sg10
g29
sg12
g13
sg14
Vcarbohydrate
p34
sa(dp35
g3
VCarbohydrates
p36
sg5
g6
sg7
Vhttp://dbpedia.org/resource/Category:Carbohydrates
p37
sg9
I1353
sg10
g19
sg12
g13
sg14
Vcarbohydrate
p38
sa(dp39
g3
VWord
p40
sg5
g6
sg7
Vhttp://wibitaxonomy.org/Word
p41
sg9
I1050
sg10
g24
sg12
g13
sg14
Vword
p42
sa(dp43
g3
VMaterials science
p44
sg5
g6
sg7
Vhttp://wibitaxonomy.org/Category%3AMaterials_science
p45
sg9
I181
sg10
g11
sg12
g13
sg14
VMaterials science
p46
sa(dp47
g3
VSweeteners
p48
sg5
g6
sg7
Vhttp://dbpedia.org/resource/Category:Sweeteners
p49
sg9
I61
sg10
g29
sg12
g13
sg14
Vsweetener
p50
sa(dp51
g3
VSweeteners
p52
sg5
g6
sg7
Vhttp://dbpedia.org/resource/Category:Sweeteners
p53
sg9
I61
sg10
g19
sg12
g13
sg14
Vsweetener
p54
sa(dp55
g3
VGranular materials
p56
sg5
g6
sg7
Vhttp://wibitaxonomy.org/Category%3AGranular_materials
p57
sg9
I9
sg10
g11
sg12
g13
sg14
VGranular material
p58
sa(dp59
g3
VExcipients
p60
sg5
g6
sg7
Vhttp://dbpedia.org/resource/Category:Excipients
p61
sg9
I0
sg10
g29
sg12
g13
sg14
Vexcipients
p62
sa.