(lp1
(dp2
S'generalizedLabel'
p3
VMatter
p4
sS'term'
p5
Vsulfur
p6
sS'generalizedURI'
p7
Vhttp://wibitaxonomy.org/Matter
p8
sS'generalizedFreq'
p9
I7091
sS'subjectURI'
p10
Vhttp://wibitaxonomy.org/Sulfur
p11
sS'inputType'
p12
VCompound
p13
sS'generalizedLemma'
p14
Vmatter
p15
sa(dp16
g3
VChemistry
p17
sg5
g6
sg7
Vhttp://wibitaxonomy.org/Category%3AChemistry
p18
sg9
I4471
sg10
Vhttp://wibitaxonomy.org/Category%3ASulfur
p19
sg12
g13
sg14
Vchemistry
p20
sa(dp21
g3
VSulfur
p22
sg5
g6
sg7
Vhttp://dbpedia.org/resource/Category:Sulfur
p23
sg9
I2260
sg10
Vhttp://dbpedia.org/resource/Sulfur
p24
sg12
g13
sg14
Vsulfur
p25
sa(dp26
g3
Vchemical compound
p27
sg5
g6
sg7
Vhttp://dbpedia.org/ontology/ChemicalCompound
p28
sg9
I76
sg10
Vhttp://dbpedia.org/resource/Disulfur
p29
sg12
g13
sg14
Vchemical compound
p30
sa(dp31
g3
VChemical elements
p32
sg5
g6
sg7
Vhttp://dbpedia.org/resource/Category:Chemical_elements
p33
sg9
I29
sg10
g24
sg12
g13
sg14
VChemical element
p34
sa(dp35
g3
VChemical elements
p36
sg5
g6
sg7
Vhttp://dbpedia.org/resource/Category:Chemical_elements
p37
sg9
I29
sg10
Vhttp://dbpedia.org/resource/Category:Sulfur
p38
sg12
g13
sg14
VChemical element
p39
sa(dp40
g3
VChemical element
p41
sg5
g6
sg7
Vhttp://wibitaxonomy.org/Chemical_element
p42
sg9
I29
sg10
g11
sg12
g13
sg14
VChemical element
p43
sa(dp44
g3
VChemical elements
p45
sg5
g6
sg7
Vhttp://wibitaxonomy.org/Category%3AChemical_elements
p46
sg9
I29
sg10
g19
sg12
g13
sg14
VChemical element
p47
sa(dp48
g3
VAgricultural chemicals
p49
sg5
g6
sg7
Vhttp://dbpedia.org/resource/Category:Agricultural_chemicals
p50
sg9
I16
sg10
g24
sg12
g13
sg14
VAgricultural chemical
p51
sa(dp52
g3
Vchemical substance
p53
sg5
g6
sg7
Vhttp://dbpedia.org/ontology/ChemicalSubstance
p54
sg9
I6
sg10
g29
sg12
g13
sg14
Vchemical substance
p55
sa(dp56
g3
VChemical substance
p57
sg5
g6
sg7
Vhttp://wibitaxonomy.org/Chemical_substance
p58
sg9
I6
sg10
g11
sg12
g13
sg14
VChemical substance
p59
sa(dp60
g3
VChemical substances
p61
sg5
g6
sg7
Vhttp://wibitaxonomy.org/Category%3AChemical_substances
p62
sg9
I6
sg10
g19
sg12
g13
sg14
VChemical substance
p63
sa(dp64
g3
VSulfur forms
p65
sg5
g6
sg7
Vhttp://dbpedia.org/resource/Category:Sulfur_forms
p66
sg9
I3
sg10
g29
sg12
g13
sg14
VSulfur form
p67
sa(dp68
g3
VInorganic polymers
p69
sg5
g6
sg7
Vhttp://dbpedia.org/resource/Category:Inorganic_polymers
p70
sg9
I2
sg10
g24
sg12
g13
sg14
VInorganic polymer
p71
sa(dp72
g3
VBiology and pharmacology of chemical elements
p73
sg5
g6
sg7
Vhttp://dbpedia.org/resource/Category:Biology_and_pharmacology_of_chemical_elements
p74
sg9
I0
sg10
g24
sg12
g13
sg14
VBiology and pharmacology of chemical element
p75
sa(dp76
g3
VDietary minerals
p77
sg5
g6
sg7
Vhttp://dbpedia.org/resource/Category:Dietary_minerals
p78
sg9
I0
sg10
g24
sg12
g13
sg14
VDietary mineral
p79
sa(dp80
g3
VNative element minerals
p81
sg5
g6
sg7
Vhttp://dbpedia.org/resource/Category:Native_element_minerals
p82
sg9
I0
sg10
g24
sg12
g13
sg14
VNative element mineral
p83
sa(dp84
g3
VOrthorhombic minerals
p85
sg5
g6
sg7
Vhttp://dbpedia.org/resource/Category:Orthorhombic_minerals
p86
sg9
I0
sg10
g24
sg12
g13
sg14
VOrthorhombic mineral
p87
sa(dp88
g3
VChalcogens
p89
sg5
g6
sg7
Vhttp://dbpedia.org/resource/Category:Chalcogens
p90
sg9
I0
sg10
g24
sg12
g13
sg14
Vchalcogens
p91
sa(dp92
g3
VPolyatomic nonmetals
p93
sg5
g6
sg7
Vhttp://dbpedia.org/resource/Category:Polyatomic_nonmetals
p94
sg9
I0
sg10
g24
sg12
g13
sg14
VPolyatomic nonmetal
p95
sa(dp96
g3
VAnti-acne preparations
p97
sg5
g6
sg7
Vhttp://dbpedia.org/resource/Category:Anti-acne_preparations
p98
sg9
I0
sg10
g24
sg12
g13
sg14
VAnti-acne preparation
p99
sa(dp100
g3
VPyrotechnic fuels
p101
sg5
g6
sg7
Vhttp://dbpedia.org/resource/Category:Pyrotechnic_fuels
p102
sg9
I0
sg10
g24
sg12
g13
sg14
VPyrotechnic fuel
p103
sa(dp104
g3
VChalcogens
p105
sg5
g6
sg7
Vhttp://dbpedia.org/resource/Category:Chalcogens
p106
sg9
I0
sg10
g38
sg12
g13
sg14
Vchalcogens
p107
sa(dp108
g3
VPolyatomic nonmetals
p109
sg5
g6
sg7
Vhttp://dbpedia.org/resource/Category:Polyatomic_nonmetals
p110
sg9
I0
sg10
g38
sg12
g13
sg14
VPolyatomic nonmetal
p111
sa(dp112
g3
VWikipedia categories named after chemical elements
p113
sg5
g6
sg7
Vhttp://dbpedia.org/resource/Category:Wikipedia_categories_named_after_chemical_elements
p114
sg9
I0
sg10
g38
sg12
g13
sg14
VWikipedia categories named after chemical element
p115
sa(dp116
g3
VHomonuclear diatomic molecules
p117
sg5
g6
sg7
Vhttp://dbpedia.org/resource/Category:Homonuclear_diatomic_molecules
p118
sg9
I0
sg10
g29
sg12
g13
sg14
VHomonuclear diatomic molecule
p119
sa.