(lp1
(dp2
S'generalizedLabel'
p3
Vplace
p4
sS'term'
p5
VSweden
p6
sS'generalizedURI'
p7
Vhttp://dbpedia.org/ontology/Place
p8
sS'generalizedFreq'
p9
I6273
sS'subjectURI'
p10
Vhttp://dbpedia.org/resource/Sweden
p11
sS'inputType'
p12
VLocation
p13
sS'generalizedLemma'
p14
g4
sa(dp15
g3
Vcountry
p16
sg5
g6
sg7
Vhttp://dbpedia.org/ontology/Country
p17
sg9
I5355
sg10
g11
sg12
g13
sg14
g16
sa(dp18
g3
VSweden
p19
sg5
g6
sg7
Vhttp://dbpedia.org/resource/Category:Sweden
p20
sg9
I844
sg10
g11
sg12
g13
sg14
Vsweden
p21
sa(dp22
g3
VNorthern Europe
p23
sg5
g6
sg7
Vhttp://dbpedia.org/resource/Category:Northern_Europe
p24
sg9
I184
sg10
g11
sg12
g13
sg14
VNorthern europe
p25
sa(dp26
g3
VNorthern Europe
p27
sg5
g6
sg7
Vhttp://wibitaxonomy.org/Category%3ANorthern_Europe
p28
sg9
I184
sg10
Vhttp://wibitaxonomy.org/Category%3ASweden
p29
sg12
g13
sg14
VNorthern europe
p30
sa(dp31
g3
VScandinavia
p32
sg5
g6
sg7
Vhttp://dbpedia.org/resource/Category:Scandinavia
p33
sg9
I104
sg10
g11
sg12
g13
sg14
Vscandinavia
p34
sa(dp35
g3
VScandinavia
p36
sg5
g6
sg7
Vhttp://dbpedia.org/resource/Category:Scandinavia
p37
sg9
I104
sg10
Vhttp://dbpedia.org/resource/Category:Sweden
p38
sg12
g13
sg14
Vscandinavia
p39
sa(dp40
g3
VScandinavia
p41
sg5
g6
sg7
Vhttp://wibitaxonomy.org/Category%3AScandinavia
p42
sg9
I104
sg10
g29
sg12
g13
sg14
Vscandinavia
p43
sa(dp44
g3
VNordic countries
p45
sg5
g6
sg7
Vhttp://dbpedia.org/resource/Category:Nordic_countries
p46
sg9
I13
sg10
g11
sg12
g13
sg14
VNordic country
p47
sa(dp48
g3
VNordic countries
p49
sg5
g6
sg7
Vhttp://dbpedia.org/resource/Category:Nordic_countries
p50
sg9
I13
sg10
g38
sg12
g13
sg14
VNordic country
p51
sa(dp52
g3
VNordic countries
p53
sg5
g6
sg7
Vhttp://wibitaxonomy.org/Nordic_countries
p54
sg9
I13
sg10
Vhttp://wibitaxonomy.org/Sweden
p55
sg12
g13
sg14
VNordic country
p56
sa(dp57
g3
VCountries in Europe
p58
sg5
g6
sg7
Vhttp://dbpedia.org/resource/Category:Countries_in_Europe
p59
sg9
I8
sg10
g11
sg12
g13
sg14
VCountries in europe
p60
sa(dp61
g3
VMember states of the European Union
p62
sg5
g6
sg7
Vhttp://dbpedia.org/resource/Category:Member_states_of_the_European_Union
p63
sg9
I8
sg10
g11
sg12
g13
sg14
VMember states of the European union
p64
sa(dp65
g3
VCountries in Europe
p66
sg5
g6
sg7
Vhttp://dbpedia.org/resource/Category:Countries_in_Europe
p67
sg9
I8
sg10
g38
sg12
g13
sg14
VCountries in europe
p68
sa(dp69
g3
VMember states of the European Union
p70
sg5
g6
sg7
Vhttp://dbpedia.org/resource/Category:Member_states_of_the_European_Union
p71
sg9
I8
sg10
g38
sg12
g13
sg14
VMember states of the European union
p72
sa(dp73
g3
VRegions of Europe
p74
sg5
g6
sg7
Vhttp://wibitaxonomy.org/Category%3ARegions_of_Europe
p75
sg9
I6
sg10
g29
sg12
g13
sg14
VRegions of europe
p76
sa(dp77
g3
Vpopulated place
p78
sg5
g6
sg7
Vhttp://dbpedia.org/ontology/PopulatedPlace
p79
sg9
I2
sg10
g11
sg12
g13
sg14
Vpopulated place
p80
sa(dp81
g3
VLiberal democracies
p82
sg5
g6
sg7
Vhttp://dbpedia.org/resource/Category:Liberal_democracies
p83
sg9
I1
sg10
g11
sg12
g13
sg14
VLiberal democracy
p84
sa(dp85
g3
VGermanic countries and territories
p86
sg5
g6
sg7
Vhttp://dbpedia.org/resource/Category:Germanic_countries_and_territories
p87
sg9
I0
sg10
g11
sg12
g13
sg14
VGermanic countries and territory
p88
sa(dp89
g3
VMember states of the United Nations
p90
sg5
g6
sg7
Vhttp://dbpedia.org/resource/Category:Member_states_of_the_United_Nations
p91
sg9
I0
sg10
g11
sg12
g13
sg14
VMember states of the United nation
p92
sa(dp93
g3
VYear of establishment unknown
p94
sg5
g6
sg7
Vhttp://dbpedia.org/resource/Category:Year_of_establishment_unknown
p95
sg9
I0
sg10
g11
sg12
g13
sg14
VYear of establishment unknown
p96
sa(dp97
g3
VMember states of the Union for the Mediterranean
p98
sg5
g6
sg7
Vhttp://dbpedia.org/resource/Category:Member_states_of_the_Union_for_the_Mediterranean
p99
sg9
I0
sg10
g11
sg12
g13
sg14
VMember states of the Union for the mediterranean
p100
sa(dp101
g3
VConstitutional monarchies
p102
sg5
g6
sg7
Vhttp://dbpedia.org/resource/Category:Constitutional_monarchies
p103
sg9
I0
sg10
g11
sg12
g13
sg14
VConstitutional monarchy
p104
sa(dp105
g3
VSwedish-speaking countries and territories
p106
sg5
g6
sg7
Vhttp://dbpedia.org/resource/Category:Swedish-speaking_countries_and_territories
p107
sg9
I0
sg10
g11
sg12
g13
sg14
VSwedish-speaking countries and territory
p108
sa(dp109
g3
Nsg5
g6
sg7
Vhttp://dbpedia.org/ontology/Location
p110
sg9
I0
sg10
g11
sg12
g13
sg14
Nsa(dp111
g3
VGermanic countries and territories
p112
sg5
g6
sg7
Vhttp://dbpedia.org/resource/Category:Germanic_countries_and_territories
p113
sg9
I0
sg10
g38
sg12
g13
sg14
VGermanic countries and territory
p114
sa(dp115
g3
VNUTS 1 statistical regions of the European Union
p116
sg5
g6
sg7
Vhttp://dbpedia.org/resource/Category:NUTS_1_statistical_regions_of_the_European_Union
p117
sg9
I0
sg10
g38
sg12
g13
sg14
VNUTS 1 statistical regions of the European union
p118
sa(dp119
g3
VWikipedia categories named after countries
p120
sg5
g6
sg7
Vhttp://dbpedia.org/resource/Category:Wikipedia_categories_named_after_countries
p121
sg9
I0
sg10
g38
sg12
g13
sg14
VWikipedia categories named after country
p122
sa(dp123
g3
VSwedish-speaking countries and territories
p124
sg5
g6
sg7
Vhttp://dbpedia.org/resource/Category:Swedish-speaking_countries_and_territories
p125
sg9
I0
sg10
g38
sg12
g13
sg14
VSwedish-speaking countries and territory
p126
sa.