(lp1
(dp2
S'generalizedLabel'
p3
VOrganic compound
p4
sS'term'
p5
VTaurine
p6
sS'generalizedURI'
p7
Vhttp://wibitaxonomy.org/Organic_compound
p8
sS'generalizedFreq'
p9
I774
sS'subjectURI'
p10
Vhttp://wibitaxonomy.org/Taurine
p11
sS'inputType'
p12
VCompound
p13
sS'generalizedLemma'
p14
VOrganic compound
p15
sa(dp16
g3
VAmines
p17
sg5
g6
sg7
Vhttp://dbpedia.org/resource/Category:Amines
p18
sg9
I370
sg10
Vhttp://dbpedia.org/resource/Taurine
p19
sg12
g13
sg14
Vamine
p20
sa(dp21
g3
VOrganic acid
p22
sg5
g6
sg7
Vhttp://wibitaxonomy.org/Organic_acid
p23
sg9
I317
sg10
g11
sg12
g13
sg14
VOrganic acid
p24
sa(dp25
g3
Vchemical compound
p26
sg5
g6
sg7
Vhttp://dbpedia.org/ontology/ChemicalCompound
p27
sg9
I76
sg10
g19
sg12
g13
sg14
Vchemical compound
p28
sa(dp29
g3
VSulfonic acids
p30
sg5
g6
sg7
Vhttp://dbpedia.org/resource/Category:Sulfonic_acids
p31
sg9
I14
sg10
g19
sg12
g13
sg14
VSulfonic acid
p32
sa(dp33
g3
Vchemical substance
p34
sg5
g6
sg7
Vhttp://dbpedia.org/ontology/ChemicalSubstance
p35
sg9
I6
sg10
g19
sg12
g13
sg14
Vchemical substance
p36
sa(dp37
g3
VGlycine receptor agonists
p38
sg5
g6
sg7
Vhttp://dbpedia.org/resource/Category:Glycine_receptor_agonists
p39
sg9
I0
sg10
g19
sg12
g13
sg14
VGlycine receptor agonist
p40
sa.