(lp1
(dp2
S'generalizedLabel'
p3
VSea
p4
sS'term'
p5
VTyrrhenian Sea
p6
sS'generalizedURI'
p7
Vhttp://wibitaxonomy.org/Sea
p8
sS'generalizedFreq'
p9
I27324
sS'subjectURI'
p10
Vhttp://wibitaxonomy.org/Tyrrhenian_Sea
p11
sS'inputType'
p12
VLocation
p13
sS'generalizedLemma'
p14
Vsea
p15
sa(dp16
g3
VMediterranean Sea
p17
sg5
g6
sg7
Vhttp://wibitaxonomy.org/Mediterranean_Sea
p18
sg9
I733
sg10
g11
sg12
g13
sg14
VMediterranean sea
p19
sa(dp20
g3
VEuropean seas
p21
sg5
g6
sg7
Vhttp://dbpedia.org/resource/Category:European_seas
p22
sg9
I44
sg10
Vhttp://dbpedia.org/resource/Tyrrhenian_Sea
p23
sg12
g13
sg14
VEuropean sea
p24
sa(dp25
g3
VBody of water
p26
sg5
g6
sg7
Vhttp://wibitaxonomy.org/Body_of_water
p27
sg9
I27
sg10
g11
sg12
g13
sg14
VBody of water
p28
sa(dp29
g3
VBack-arc basins
p30
sg5
g6
sg7
Vhttp://dbpedia.org/resource/Category:Back-arc_basins
p31
sg9
I16
sg10
g23
sg12
g13
sg14
VBack-arc basin
p32
sa(dp33
g3
VLandforms of Sicily
p34
sg5
g6
sg7
Vhttp://dbpedia.org/resource/Category:Landforms_of_Sicily
p35
sg9
I0
sg10
g23
sg12
g13
sg14
VLandforms of sicily
p36
sa(dp37
g3
VLandforms of Calabria
p38
sg5
g6
sg7
Vhttp://dbpedia.org/resource/Category:Landforms_of_Calabria
p39
sg9
I0
sg10
g23
sg12
g13
sg14
VLandforms of calabria
p40
sa(dp41
g3
VMarginal seas of the Mediterranean
p42
sg5
g6
sg7
Vhttp://dbpedia.org/resource/Category:Marginal_seas_of_the_Mediterranean
p43
sg9
I0
sg10
g23
sg12
g13
sg14
VMarginal seas of the mediterranean
p44
sa(dp45
g3
VLandforms of Lazio
p46
sg5
g6
sg7
Vhttp://dbpedia.org/resource/Category:Landforms_of_Lazio
p47
sg9
I0
sg10
g23
sg12
g13
sg14
VLandforms of lazio
p48
sa(dp49
g3
VLandforms of Basilicata
p50
sg5
g6
sg7
Vhttp://dbpedia.org/resource/Category:Landforms_of_Basilicata
p51
sg9
I0
sg10
g23
sg12
g13
sg14
VLandforms of basilicata
p52
sa(dp53
g3
VLandforms of Tuscany
p54
sg5
g6
sg7
Vhttp://dbpedia.org/resource/Category:Landforms_of_Tuscany
p55
sg9
I0
sg10
g23
sg12
g13
sg14
VLandforms of tuscany
p56
sa(dp57
g3
VLandforms of Campania
p58
sg5
g6
sg7
Vhttp://dbpedia.org/resource/Category:Landforms_of_Campania
p59
sg9
I0
sg10
g23
sg12
g13
sg14
VLandforms of campania
p60
sa(dp61
g3
VSeas of Italy
p62
sg5
g6
sg7
Vhttp://dbpedia.org/resource/Category:Seas_of_Italy
p63
sg9
I0
sg10
g23
sg12
g13
sg14
VSeas of italy
p64
sa(dp65
g3
VLandforms of Corsica
p66
sg5
g6
sg7
Vhttp://dbpedia.org/resource/Category:Landforms_of_Corsica
p67
sg9
I0
sg10
g23
sg12
g13
sg14
VLandforms of corsica
p68
sa(dp69
g3
VSeas of France
p70
sg5
g6
sg7
Vhttp://dbpedia.org/resource/Category:Seas_of_France
p71
sg9
I0
sg10
g23
sg12
g13
sg14
VSeas of france
p72
sa.