(lp1
(dp2
S'generalizedLabel'
p3
VArea
p4
sS'term'
p5
VVestfold Hills
p6
sS'generalizedURI'
p7
Vhttp://wibitaxonomy.org/Area
p8
sS'generalizedFreq'
p9
I23465
sS'subjectURI'
p10
Vhttp://wibitaxonomy.org/Vestfold_Hills
p11
sS'inputType'
p12
VLocation
p13
sS'generalizedLemma'
p14
Varea
p15
sa(dp16
g3
VQuantity
p17
sg5
g6
sg7
Vhttp://wibitaxonomy.org/Quantity
p18
sg9
I2054
sg10
g11
sg12
g13
sg14
Vquantity
p19
sa(dp20
g3
VOases of Antarctica
p21
sg5
g6
sg7
Vhttp://dbpedia.org/resource/Category:Oases_of_Antarctica
p22
sg9
I0
sg10
Vhttp://dbpedia.org/resource/Vestfold_Hills
p23
sg12
g13
sg14
VOases of antarctica
p24
sa(dp25
g3
VHills of Princess Elizabeth Land
p26
sg5
g6
sg7
Vhttp://dbpedia.org/resource/Category:Hills_of_Princess_Elizabeth_Land
p27
sg9
I0
sg10
g23
sg12
g13
sg14
VHills of Princess Elizabeth land
p28
sa(dp29
g3
VProperty %5C%28philosophy%5C%29
p30
sg5
g6
sg7
Vhttp://wibitaxonomy.org/Property_%5C%28philosophy%5C%29
p31
sg9
I0
sg10
g11
sg12
g13
sg14
VProperty %5c%28philosophy%5c%29
p32
sa.