(lp1
(dp2
S'generalizedLabel'
p3
VArea
p4
sS'term'
p5
VWest Antarctica
p6
sS'generalizedURI'
p7
Vhttp://wibitaxonomy.org/Area
p8
sS'generalizedFreq'
p9
I17670
sS'subjectURI'
p10
Vhttp://wibitaxonomy.org/West_Antarctica
p11
sS'inputType'
p12
VLocation
p13
sS'generalizedLemma'
p14
Varea
p15
sa(dp16
g3
VAntarctica
p17
sg5
g6
sg7
Vhttp://wibitaxonomy.org/Category%3AAntarctica
p18
sg9
I3195
sg10
Vhttp://wibitaxonomy.org/Category%3AWest_Antarctica
p19
sg12
g13
sg14
Vantarctica
p20
sa(dp21
g3
VContinent
p22
sg5
g6
sg7
Vhttp://wibitaxonomy.org/Continent
p23
sg9
I1365
sg10
g11
sg12
g13
sg14
Vcontinent
p24
sa(dp25
g3
VContinents
p26
sg5
g6
sg7
Vhttp://wibitaxonomy.org/Category%3AContinents
p27
sg9
I1365
sg10
g19
sg12
g13
sg14
Vcontinent
p28
sa(dp29
g3
VTundra
p30
sg5
g6
sg7
Vhttp://dbpedia.org/resource/Category:Tundra
p31
sg9
I1275
sg10
Vhttp://dbpedia.org/resource/West_Antarctica
p32
sg12
g13
sg14
Vtundra
p33
sa(dp34
g3
VWest Antarctica
p35
sg5
g6
sg7
Vhttp://dbpedia.org/resource/Category:West_Antarctica
p36
sg9
I182
sg10
g32
sg12
g13
sg14
VWest antarctica
p37
sa(dp38
g3
VLandmass
p39
sg5
g6
sg7
Vhttp://wibitaxonomy.org/Landmass
p40
sg9
I103
sg10
g11
sg12
g13
sg14
Vlandmass
p41
sa(dp42
g3
VAntarctic ecozone
p43
sg5
g6
sg7
Vhttp://dbpedia.org/resource/Category:Antarctic_ecozone
p44
sg9
I0
sg10
g32
sg12
g13
sg14
VAntarctic ecozone
p45
sa(dp46
g3
VGeography of Antarctica
p47
sg5
g6
sg7
Vhttp://dbpedia.org/resource/Category:Geography_of_Antarctica
p48
sg9
I0
sg10
Vhttp://dbpedia.org/resource/Category:West_Antarctica
p49
sg12
g13
sg14
VGeography of antarctica
p50
sa(dp51
g3
VGeography of Antarctica
p52
sg5
g6
sg7
Vhttp://wibitaxonomy.org/Category%3AGeography_of_Antarctica
p53
sg9
I0
sg10
g19
sg12
g13
sg14
VGeography of antarctica
p54
sa.