(lp1
(dp2
S'generalizedLabel'
p3
VMatter
p4
sS'term'
p5
Vzinc
p6
sS'generalizedURI'
p7
Vhttp://wibitaxonomy.org/Matter
p8
sS'generalizedFreq'
p9
I7091
sS'subjectURI'
p10
Vhttp://wibitaxonomy.org/Zinc
p11
sS'inputType'
p12
VCompound
p13
sS'generalizedLemma'
p14
Vmatter
p15
sa(dp16
g3
VChemistry
p17
sg5
g6
sg7
Vhttp://wibitaxonomy.org/Category%3AChemistry
p18
sg9
I4471
sg10
Vhttp://wibitaxonomy.org/Category%3AZinc
p19
sg12
g13
sg14
Vchemistry
p20
sa(dp21
g3
VZinc
p22
sg5
g6
sg7
Vhttp://dbpedia.org/resource/Category:Zinc
p23
sg9
I887
sg10
Vhttp://dbpedia.org/resource/Zinc
p24
sg12
g13
sg14
Vzinc
p25
sa(dp26
g3
VTransition metals
p27
sg5
g6
sg7
Vhttp://dbpedia.org/resource/Category:Transition_metals
p28
sg9
I193
sg10
g24
sg12
g13
sg14
VTransition metal
p29
sa(dp30
g3
VTransition metals
p31
sg5
g6
sg7
Vhttp://dbpedia.org/resource/Category:Transition_metals
p32
sg9
I193
sg10
Vhttp://dbpedia.org/resource/Category:Zinc
p33
sg12
g13
sg14
VTransition metal
p34
sa(dp35
g3
VReducing agents
p36
sg5
g6
sg7
Vhttp://dbpedia.org/resource/Category:Reducing_agents
p37
sg9
I55
sg10
g24
sg12
g13
sg14
VReducing agent
p38
sa(dp39
g3
VChemical elements
p40
sg5
g6
sg7
Vhttp://dbpedia.org/resource/Category:Chemical_elements
p41
sg9
I29
sg10
g24
sg12
g13
sg14
VChemical element
p42
sa(dp43
g3
VChemical elements
p44
sg5
g6
sg7
Vhttp://dbpedia.org/resource/Category:Chemical_elements
p45
sg9
I29
sg10
g33
sg12
g13
sg14
VChemical element
p46
sa(dp47
g3
VChemical element
p48
sg5
g6
sg7
Vhttp://wibitaxonomy.org/Chemical_element
p49
sg9
I29
sg10
g11
sg12
g13
sg14
VChemical element
p50
sa(dp51
g3
VChemical elements
p52
sg5
g6
sg7
Vhttp://wibitaxonomy.org/Category%3AChemical_elements
p53
sg9
I29
sg10
g19
sg12
g13
sg14
VChemical element
p54
sa(dp55
g3
VChemical substance
p56
sg5
g6
sg7
Vhttp://wibitaxonomy.org/Chemical_substance
p57
sg9
I6
sg10
g11
sg12
g13
sg14
VChemical substance
p58
sa(dp59
g3
VChemical substances
p60
sg5
g6
sg7
Vhttp://wibitaxonomy.org/Category%3AChemical_substances
p61
sg9
I6
sg10
g19
sg12
g13
sg14
VChemical substance
p62
sa(dp63
g3
VAlchemical substances
p64
sg5
g6
sg7
Vhttp://dbpedia.org/resource/Category:Alchemical_substances
p65
sg9
I0
sg10
g24
sg12
g13
sg14
VAlchemical substance
p66
sa(dp67
g3
VBiology and pharmacology of chemical elements
p68
sg5
g6
sg7
Vhttp://dbpedia.org/resource/Category:Biology_and_pharmacology_of_chemical_elements
p69
sg9
I0
sg10
g24
sg12
g13
sg14
VBiology and pharmacology of chemical element
p70
sa(dp71
g3
VDietary minerals
p72
sg5
g6
sg7
Vhttp://dbpedia.org/resource/Category:Dietary_minerals
p73
sg9
I0
sg10
g24
sg12
g13
sg14
VDietary mineral
p74
sa(dp75
g3
VNMDA receptor antagonists
p76
sg5
g6
sg7
Vhttp://dbpedia.org/resource/Category:NMDA_receptor_antagonists
p77
sg9
I0
sg10
g24
sg12
g13
sg14
VNMDA receptor antagonist
p78
sa(dp79
g3
VPyrotechnic fuels
p80
sg5
g6
sg7
Vhttp://dbpedia.org/resource/Category:Pyrotechnic_fuels
p81
sg9
I0
sg10
g24
sg12
g13
sg14
VPyrotechnic fuel
p82
sa(dp83
g3
VGlycine receptor antagonists
p84
sg5
g6
sg7
Vhttp://dbpedia.org/resource/Category:Glycine_receptor_antagonists
p85
sg9
I0
sg10
g24
sg12
g13
sg14
VGlycine receptor antagonist
p86
sa(dp87
g3
VGlycine receptor agonists
p88
sg5
g6
sg7
Vhttp://dbpedia.org/resource/Category:Glycine_receptor_agonists
p89
sg9
I0
sg10
g24
sg12
g13
sg14
VGlycine receptor agonist
p90
sa(dp91
g3
VGABAA-rho receptor antagonists
p92
sg5
g6
sg7
Vhttp://dbpedia.org/resource/Category:GABAA-rho_receptor_antagonists
p93
sg9
I0
sg10
g24
sg12
g13
sg14
VGABAA-rho receptor antagonist
p94
sa(dp95
g3
VGABAA receptor negative allosteric modulators
p96
sg5
g6
sg7
Vhttp://dbpedia.org/resource/Category:GABAA_receptor_negative_allosteric_modulators
p97
sg9
I0
sg10
g24
sg12
g13
sg14
VGABAA receptor negative allosteric modulators
p98
sa(dp99
g3
VWikipedia categories named after chemical elements
p100
sg5
g6
sg7
Vhttp://dbpedia.org/resource/Category:Wikipedia_categories_named_after_chemical_elements
p101
sg9
I0
sg10
g33
sg12
g13
sg14
VWikipedia categories named after chemical element
p102
sa.